"File: ADC.c         Assembler  Version HGASM0202      Page 1


   1  0000              ; Generated by holtek-gcc v3.19, Tue Jul 23 17:13:52 2019
   2  0000              ; 
   3  0000              ; Configuration:
   4  0000              ;       without long instruction
   5  0000              ;       Single ROM, Multi-RAM
   6  0000              ;       bits_per_rom_unit:16
   7  0000              ;       with mp1
   8  0000              ;       with tbhp, address(0x9)
   9  0000              ;          Use tabrd-const
  10  0000              ;       
  11  0000              ;       
  12  0000              ;       
  13  0000              ; use 'tabrdc' instead of 'tabrd'
  14  0000              ;       
  15  0000              
  16  0000              #pragma translator "holtek-gcc 4.6.4" "3.19" "build 20130711"
  17  0000              ; Rebuild 115
  18  0000              
  19  0000              ir equ [2]
  20  0000              mp equ [3]
  21  0000              sbp equ [1]
  22  0000              acc equ [5]
  23  0000              bp equ [4]
  24  0000              tblp equ [7]
  25  0000              tbhp equ [9]
  26  0000              status equ [10]
  27  0000              c equ [10].0
  28  0000              ac equ [10].1
  29  0000              z equ [10].2
  30  0000              ov equ [10].3
  31  0000              intc equ [11]
  32  0000              
  33  0000              extern ra:byte
  34  0000              extern rb:byte
  35  0000              extern rc:byte
  36  0000              extern rd:byte
  37  0000              extern re:byte
  38  0000              extern rf:byte
  39  0000              extern rg:byte
  40  0000              extern rh:byte
  41  0000              extern _Crom2Prom:near
  42  0000              extern _Crom2PromNext:near
  43  0000              
  44  0000              RAMBANK 0 @HCCINIT, @HCCINIT0
  45  0000              
  46  0000              RAMBANK 0 @BITDATASEC, @BITDATASEC1
  47  0000              @HCCINIT	.section 'data'
  48  0000              @HCCINIT0	.section 'data'
  49  0000              @BITDATASEC	 .section 'data'
  50  0000              @BITDATASEC1	 .section 'data'
  51  0000              
  52  0000              #pragma debug scope 1 1
  53  0000              	extern __DELAY3:near
  54  0000              	extern __DELAYX3:near
  55  0000              	extern __DELAYX6:near
  56  0000              	extern __DELAYY5:near
  57  0000              	extern __DELAYY3:near
  58  0000              	extern _builtin_holtek_delay_2:byte
  59  0000              ___sadc0 equ [34]
"File: ADC.ASM       Assembler  Version HGASM0202      Page 2

  60  0000              ___sadc1 equ [35]
  61  0000              ___sadc2 equ [36]
  62  0000              ___acerl equ [67]
  63  0000              ___sadol equ [32]
  64  0000              ___sadoh equ [33]
  65  0000              public _fun_Get_ADC
  66  0000              #pragma debug scope 2 1

  24  0000              #line 24 "C:\ChipsGarden\醇法\MK8002D\UARTtoI2Cwith8bitsMCU\ADC.c"
  24  0000              _fun_Get_ADC .section 'code'
  24  0000              _fun_Get_ADC proc
  24  0000  00              local _fun_Get_ADC_2 db 1 dup(?)	; 0,1
  24  0000  0080     E  	mov ra,a
  24  0001  0080     R  	mov _fun_Get_ADC_2[0],a
  24  0002              #pragma debug variable 8 2 _fun_Get_ADC_2+0 "lu8c_adc_channel"
  27  0002              #line 27 "C:\ChipsGarden\醇法\MK8002D\UARTtoI2Cwith8bitsMCU\ADC.c"
  27  0002  0F37        	mov a,55
  27  0003  00A2        	mov [34],a
  28  0004              #line 28 "C:\ChipsGarden\醇法\MK8002D\UARTtoI2Cwith8bitsMCU\ADC.c"
  28  0004  0F23        	mov a,35
  28  0005  00A3        	mov [35],a
  29  0006              #line 29 "C:\ChipsGarden\醇法\MK8002D\UARTtoI2Cwith8bitsMCU\ADC.c"
  29  0006  1F24        	clr [36]
  31  0007              #line 31 "C:\ChipsGarden\醇法\MK8002D\UARTtoI2Cwith8bitsMCU\ADC.c"
  31  0007  1F43        	clr [67]
  33  0008              #line 33 "C:\ChipsGarden\醇法\MK8002D\UARTtoI2Cwith8bitsMCU\ADC.c"
  33  0008  0700     E  	mov a,ra
  33  0009  0A00        	sub a,0
  33  000A  3D0A        	sz z
  33  000B  2800     R  	jmp _L3
  33  000C  0A01        	sub a,(1)-(0)
  33  000D  3D0A        	sz z
  33  000E  2800     R  	jmp _L4
  33  000F              #line 33 "C:\ChipsGarden\醇法\MK8002D\UARTtoI2Cwith8bitsMCU\ADC.c"
  33  000F  0700     E  	mov a,ra
  33  0010  0A02        	sub a,2
  33  0011  3D0A        	sz z
  33  0012  2800     R  	jmp _L5
  33  0013  0A01        	sub a,(3)-(2)
  33  0014  3D0A        	sz z
  33  0015  2800     R  	jmp _L6
  33  0016  0700     E  	mov a,ra
  33  0017  0A04        	sub a,4
  33  0018  3D0A        	sz z
  33  0019  2800     R  	jmp _L7
  33  001A  0A01        	sub a,(5)-(4)
  33  001B  3D0A        	sz z
  33  001C  2800     R  	jmp _L8
  33  001D  0700     E  	mov a,ra
  33  001E  0A06        	sub a,6
  33  001F  390A        	snz z
  33  0020  2800     R  	jmp _L2
  41  0021              #line 41 "C:\ChipsGarden\醇法\MK8002D\UARTtoI2Cwith8bitsMCU\ADC.c"
  41  0021  3422        	clr [34].0
  41  0022  2800     R  	jmp _L2
  41  0023              _L3:
  35  0023              #line 35 "C:\ChipsGarden\醇法\MK8002D\UARTtoI2Cwith8bitsMCU\ADC.c"
  35  0023  0FF8        	mov a,248
  35  0024  06A2        	andm a,[34]
  35  0025  2800     R  	jmp _L2
"File: ADC.c         Assembler  Version HGASM0202      Page 3

  35  0026              _L4:
  36  0026              #line 36 "C:\ChipsGarden\醇法\MK8002D\UARTtoI2Cwith8bitsMCU\ADC.c"
  36  0026  0FF9        	mov a,249
  36  0027  06A2        	andm a,[34]
  36  0028  2800     R  	jmp _L2
  36  0029              _L5:
  37  0029              #line 37 "C:\ChipsGarden\醇法\MK8002D\UARTtoI2Cwith8bitsMCU\ADC.c"
  37  0029  0FFA        	mov a,250
  37  002A  06A2        	andm a,[34]
  37  002B  2800     R  	jmp _L2
  37  002C              _L6:
  38  002C              #line 38 "C:\ChipsGarden\醇法\MK8002D\UARTtoI2Cwith8bitsMCU\ADC.c"
  38  002C  3522        	clr [34].2
  38  002D  2800     R  	jmp _L2
  38  002E              _L7:
  39  002E              #line 39 "C:\ChipsGarden\醇法\MK8002D\UARTtoI2Cwith8bitsMCU\ADC.c"
  39  002E  0FFC        	mov a,252
  39  002F  06A2        	andm a,[34]
  39  0030  2800     R  	jmp _L2
  39  0031              _L8:
  40  0031              #line 40 "C:\ChipsGarden\醇法\MK8002D\UARTtoI2Cwith8bitsMCU\ADC.c"
  40  0031  34A2        	clr [34].1
  40  0032              _L2:
  45  0032              #line 45 "C:\ChipsGarden\醇法\MK8002D\UARTtoI2Cwith8bitsMCU\ADC.c"
  45  0032  32A2        	set [34].5
  47  0033              #line 47 "C:\ChipsGarden\醇法\MK8002D\UARTtoI2Cwith8bitsMCU\ADC.c"
  47  0033              ;# 47 "C:\ChipsGarden\醇法\MK8002D\UARTtoI2Cwith8bitsMCU\ADC.c" 1
  47  0033              	IF 20>263690
  47  0033              ;# 47 "C:\ChipsGarden\醇法\MK8002D\UARTtoI2Cwith8bitsMCU\ADC.c" 1
  47  0033              	ERRMESSAGE 'the value 20of the argument exceeds the maxinum 263690'
  47  0033              	ENDIF
  47  0033              ;# 47 "C:\ChipsGarden\醇法\MK8002D\UARTtoI2Cwith8bitsMCU\ADC.c" 1
  47  0033              	IF 20<0
  47  0033              ;# 47 "C:\ChipsGarden\醇法\MK8002D\UARTtoI2Cwith8bitsMCU\ADC.c" 1
  47  0033              	ERRMESSAGE 'the value 20 of the argument exceeds the mininum 0'
  47  0033              	ENDIF
  47  0033              ;# 47 "C:\ChipsGarden\醇法\MK8002D\UARTtoI2Cwith8bitsMCU\ADC.c" 1
  47  0033              	IF 20==0
  47  0033              ;# 47 "C:\ChipsGarden\醇法\MK8002D\UARTtoI2Cwith8bitsMCU\ADC.c" 1
  47  0033              	JMP $
  47  0033              	ENDIF
  47  0033              ;# 47 "C:\ChipsGarden\醇法\MK8002D\UARTtoI2Cwith8bitsMCU\ADC.c" 1
  47  0033              	IF 20==1
  47  0033              ;# 47 "C:\ChipsGarden\醇法\MK8002D\UARTtoI2Cwith8bitsMCU\ADC.c" 1
  47  0033              	NOP
  47  0033              	ENDIF
  47  0033              ;# 47 "C:\ChipsGarden\醇法\MK8002D\UARTtoI2Cwith8bitsMCU\ADC.c" 1
  47  0033              	IF 20==2
  47  0033              ;# 47 "C:\ChipsGarden\醇法\MK8002D\UARTtoI2Cwith8bitsMCU\ADC.c" 1
  47  0033              	NOP
  47  0033              ;# 47 "C:\ChipsGarden\醇法\MK8002D\UARTtoI2Cwith8bitsMCU\ADC.c" 1
  47  0033              	NOP
  47  0033              	ENDIF
  47  0033              ;# 47 "C:\ChipsGarden\醇法\MK8002D\UARTtoI2Cwith8bitsMCU\ADC.c" 1
  47  0033              	IF 20==3
  47  0033              ;# 47 "C:\ChipsGarden\醇法\MK8002D\UARTtoI2Cwith8bitsMCU\ADC.c" 1
  47  0033              	NOP
  47  0033              ;# 47 "C:\ChipsGarden\醇法\MK8002D\UARTtoI2Cwith8bitsMCU\ADC.c" 1
  47  0033              	NOP
  47  0033              ;# 47 "C:\ChipsGarden\醇法\MK8002D\UARTtoI2Cwith8bitsMCU\ADC.c" 1
"File: ADC.c         Assembler  Version HGASM0202      Page 4

  47  0033              	NOP
  47  0033              	ENDIF
  47  0033              ;# 47 "C:\ChipsGarden\醇法\MK8002D\UARTtoI2Cwith8bitsMCU\ADC.c" 1
  47  0033              	IF (20<8) AND (20>3)
  47  0033              ;# 47 "C:\ChipsGarden\醇法\MK8002D\UARTtoI2Cwith8bitsMCU\ADC.c" 1
  47  0033              	CALL __DELAY3 + 7 -20
  47  0033              	ENDIF
  47  0033              ;# 47 "C:\ChipsGarden\醇法\MK8002D\UARTtoI2Cwith8bitsMCU\ADC.c" 1
  47  0033              	IF (20< 0404h) AND (20>7)
  47  0033              ;# 47 "C:\ChipsGarden\醇法\MK8002D\UARTtoI2Cwith8bitsMCU\ADC.c" 1
  47  0033  0F04        	MOV A,20/4-1
  47  0034              ;# 47 "C:\ChipsGarden\醇法\MK8002D\UARTtoI2Cwith8bitsMCU\ADC.c" 1
  47  0034  2000     E  	CALL __DELAYX3 + 3 -(20 MOD 4)
  47  0035              	ENDIF
  47  0035              ;# 47 "C:\ChipsGarden\醇法\MK8002D\UARTtoI2Cwith8bitsMCU\ADC.c" 1
  47  0035              	IF (20< 0x40B) AND (20> 0403h)
  47  0035              ;# 47 "C:\ChipsGarden\醇法\MK8002D\UARTtoI2Cwith8bitsMCU\ADC.c" 1
  47  0035              	MOV A,0 
  47  0035              ;# 47 "C:\ChipsGarden\醇法\MK8002D\UARTtoI2Cwith8bitsMCU\ADC.c" 1
  47  0035              	CALL __DELAYX6 + 0x40a -20
  47  0035              	ENDIF
  47  0035              ;# 47 "C:\ChipsGarden\醇法\MK8002D\UARTtoI2Cwith8bitsMCU\ADC.c" 1
  47  0035              	IF (20 >= 0x40b) AND ((((20-9)%0402h)/4+1)>256)
  47  0035              ;# 47 "C:\ChipsGarden\醇法\MK8002D\UARTtoI2Cwith8bitsMCU\ADC.c" 1
  47  0035              	MOV A,(20-9)/0402h
  47  0035              ;# 47 "C:\ChipsGarden\醇法\MK8002D\UARTtoI2Cwith8bitsMCU\ADC.c" 1
  47  0035              	MOV _builtin_holtek_delay_2,A
  47  0035              ;# 47 "C:\ChipsGarden\醇法\MK8002D\UARTtoI2Cwith8bitsMCU\ADC.c" 1
  47  0035              	MOV A,0
  47  0035              ;# 47 "C:\ChipsGarden\醇法\MK8002D\UARTtoI2Cwith8bitsMCU\ADC.c" 1
  47  0035              	CALL __DELAYY5 +5- (((20-9)%0402h)%6)
  47  0035              	ENDIF
  47  0035              ;# 47 "C:\ChipsGarden\醇法\MK8002D\UARTtoI2Cwith8bitsMCU\ADC.c" 1
  47  0035              	IF (20 >= 0x40b) AND ((((20-9)%0402h)/4+1)<=256)
  47  0035              ;# 47 "C:\ChipsGarden\醇法\MK8002D\UARTtoI2Cwith8bitsMCU\ADC.c" 1
  47  0035              	MOV A,(20-9)/0402h
  47  0035              ;# 47 "C:\ChipsGarden\醇法\MK8002D\UARTtoI2Cwith8bitsMCU\ADC.c" 1
  47  0035              	MOV _builtin_holtek_delay_2,A
  47  0035              ;# 47 "C:\ChipsGarden\醇法\MK8002D\UARTtoI2Cwith8bitsMCU\ADC.c" 1
  47  0035              	MOV A,((20-9)%0402h)/4+1
  47  0035              ;# 47 "C:\ChipsGarden\醇法\MK8002D\UARTtoI2Cwith8bitsMCU\ADC.c" 1
  47  0035              	CALL __DELAYY3 +3-(((20-9)%0402h)%4)
  47  0035              	ENDIF
  48  0035              #line 48 "C:\ChipsGarden\醇法\MK8002D\UARTtoI2Cwith8bitsMCU\ADC.c"
  48  0035  37A2        	clr [34].7
  49  0036              #line 49 "C:\ChipsGarden\醇法\MK8002D\UARTtoI2Cwith8bitsMCU\ADC.c"
  49  0036  33A2        	set [34].7
  50  0037              #line 50 "C:\ChipsGarden\醇法\MK8002D\UARTtoI2Cwith8bitsMCU\ADC.c"
  50  0037  37A2        	clr [34].7
  50  0038              _L12:
  51  0038              #line 51 "C:\ChipsGarden\醇法\MK8002D\UARTtoI2Cwith8bitsMCU\ADC.c"
  51  0038  3F22        	sz [34].6
  51  0039  2800     R  	jmp _L12
  54  003A              #line 54 "C:\ChipsGarden\醇法\MK8002D\UARTtoI2Cwith8bitsMCU\ADC.c"
  54  003A  0720        	mov a,[32]
  54  003B  0080     E  	mov rb,a
  55  003C              #line 55 "C:\ChipsGarden\醇法\MK8002D\UARTtoI2Cwith8bitsMCU\ADC.c"
  55  003C  0721        	mov a,[33]
  55  003D  0080     E  	mov rc,a
  56  003E              #line 56 "C:\ChipsGarden\醇法\MK8002D\UARTtoI2Cwith8bitsMCU\ADC.c"
"File: ADC.c         Assembler  Version HGASM0202      Page 5

  56  003E  37A2        	clr [34].7
  57  003F              #line 57 "C:\ChipsGarden\醇法\MK8002D\UARTtoI2Cwith8bitsMCU\ADC.c"
  57  003F  37A2        	clr [34].7
  59  0040              #line 59 "C:\ChipsGarden\醇法\MK8002D\UARTtoI2Cwith8bitsMCU\ADC.c"
  59  0040  0700     E  	mov a,rb
  59  0041  0080     E  	mov ra,a
  59  0042  0700     E  	mov a,rc
  59  0043  0080     E  	mov rb,a
  59  0044  0F04        	mov a,4
  59  0045              _LI1:
  59  0045  340A        	clr c
  59  0046  1B80     E  	rrc rb
  59  0047  1B80     E  	rrc ra
  59  0048  1785        	sdz acc
  59  0049  2800     R  	jmp _LI1
  59  004A  0003        	ret
  59  004B              _fun_Get_ADC endp
  59  004B              #line 59 "C:\ChipsGarden\醇法\MK8002D\UARTtoI2Cwith8bitsMCU\ADC.c"
  59  004B              #pragma debug scope 1 1
  59  004B              public _fun_Disable_ADC
  59  004B              #pragma debug scope 3 1
 103  004B              #line 103 "C:\ChipsGarden\醇法\MK8002D\UARTtoI2Cwith8bitsMCU\ADC.c"
 103  0000              _fun_Disable_ADC .section 'code'
 103  0000              _fun_Disable_ADC proc
 104  0000              #line 104 "C:\ChipsGarden\醇法\MK8002D\UARTtoI2Cwith8bitsMCU\ADC.c"
 104  0000  36A2        	clr [34].5
 104  0001  0003        	ret
 104  0002              _fun_Disable_ADC endp
 104  0002              #line 104 "C:\ChipsGarden\醇法\MK8002D\UARTtoI2Cwith8bitsMCU\ADC.c"
 104  0002              #pragma debug scope 1 1
 104  0002              public _TEST_ADC
 104  0002              #pragma debug scope 4 1
 115  0002              #line 115 "C:\ChipsGarden\醇法\MK8002D\UARTtoI2Cwith8bitsMCU\ADC.c"
 115  0000              _TEST_ADC .section 'code'
 115  0000              _TEST_ADC proc
 115  0000              _L16:
 119  0000              #line 119 "C:\ChipsGarden\醇法\MK8002D\UARTtoI2Cwith8bitsMCU\ADC.c"
 119  0000              ;# 119 "C:\ChipsGarden\醇法\MK8002D\UARTtoI2Cwith8bitsMCU\ADC.c" 1
 119  0000  0001        	clr wdt
 120  0001              #line 120 "C:\ChipsGarden\醇法\MK8002D\UARTtoI2Cwith8bitsMCU\ADC.c"
 120  0001  0F06        	mov a,6
 120  0002  2000     R  	call _fun_Get_ADC
 120  0003  2800     R  	jmp _L16
 120  0004  0003        	ret
 120  0005              _TEST_ADC endp
 120  0005              #line 120 "C:\ChipsGarden\醇法\MK8002D\UARTtoI2Cwith8bitsMCU\ADC.c"
 120  0005              #pragma debug scope 1 1
 120  0005              #pragma debug variable 8 1 ___sadol "__sadol" 1
 120  0005              #pragma debug variable 8 1 ___sadoh "__sadoh" 1
 120  0005              #pragma debug struct_end
 120  0005              #pragma debug struct_end
 120  0005              #pragma debug union_end
 120  0005              #pragma debug union_end
 120  0005              #pragma debug variable 43 1 ___sadc0 "__sadc0" 1
 120  0005              #pragma debug struct_end
 120  0005              #pragma debug struct_end
 120  0005              #pragma debug union_end
 120  0005              #pragma debug union_end
 120  0005              #pragma debug variable 45 1 ___sadc1 "__sadc1" 1
 120  0005              #pragma debug struct_end
"File: ADC.c         Assembler  Version HGASM0202      Page 6

 120  0005              #pragma debug struct_end
 120  0005              #pragma debug union_end
 120  0005              #pragma debug union_end
 120  0005              #pragma debug variable 47 1 ___sadc2 "__sadc2" 1
 120  0005              #pragma debug struct_end
 120  0005              #pragma debug struct_end
 120  0005              #pragma debug union_end
 120  0005              #pragma debug union_end
 120  0005              #pragma debug variable 49 1 ___acerl "__acerl" 1
 120  0005              
 120  0005              ; 
 120  0005              ; Generated by holtek-gcc v3.19, Tue Jul 23 17:13:52 2019
 120  0005              ; Rebuild 115
 120  0005              ; end of file


        0 Errors, 0