"File: Uart.c        Assembler  Version HGASM0202      Page 1


   1  0000              ; Generated by holtek-gcc v3.19, Tue Jul 23 17:13:50 2019
   2  0000              ; 
   3  0000              ; Configuration:
   4  0000              ;       without long instruction
   5  0000              ;       Single ROM, Multi-RAM
   6  0000              ;       bits_per_rom_unit:16
   7  0000              ;       with mp1
   8  0000              ;       with tbhp, address(0x9)
   9  0000              ;          Use tabrd-const
  10  0000              ;       
  11  0000              ;       
  12  0000              ;       
  13  0000              ; use 'tabrdc' instead of 'tabrd'
  14  0000              ;       
  15  0000              
  16  0000              #pragma translator "holtek-gcc 4.6.4" "3.19" "build 20130711"
  17  0000              ; Rebuild 115
  18  0000              
  19  0000              ir equ [2]
  20  0000              mp equ [3]
  21  0000              sbp equ [1]
  22  0000              acc equ [5]
  23  0000              bp equ [4]
  24  0000              tblp equ [7]
  25  0000              tbhp equ [9]
  26  0000              status equ [10]
  27  0000              c equ [10].0
  28  0000              ac equ [10].1
  29  0000              z equ [10].2
  30  0000              ov equ [10].3
  31  0000              intc equ [11]
  32  0000              
  33  0000              extern ra:byte
  34  0000              extern rb:byte
  35  0000              extern rc:byte
  36  0000              extern rd:byte
  37  0000              extern re:byte
  38  0000              extern rf:byte
  39  0000              extern rg:byte
  40  0000              extern rh:byte
  41  0000              extern _Crom2Prom:near
  42  0000              extern _Crom2PromNext:near
  43  0000              
  44  0000              RAMBANK 0 @HCCINIT, @HCCINIT0
  45  0000              
  46  0000              RAMBANK 0 @BITDATASEC, @BITDATASEC1
  47  0000              @HCCINIT	.section 'data'
  48  0000              @HCCINIT0	.section 'data'
  49  0000              @BITDATASEC	 .section 'data'
  50  0000              @BITDATASEC1	 .section 'data'
  51  0000              
  52  0000              #pragma debug scope 1 1
  53  0000              	extern __DELAY3:near
  54  0000              	extern __DELAYX3:near
  55  0000              	extern __DELAYX6:near
  56  0000              	extern __DELAYY5:near
  57  0000              	extern __DELAYY3:near
  58  0000              	extern _builtin_holtek_delay_2:byte
  59  0000              ___pcc equ [65]
"File: Uart.ASM      Assembler  Version HGASM0202      Page 2

  60  0000              ___pc equ [64]
  61  0000              ___ucr1 equ [69]
  62  0000              ___ucr2 equ [70]
  63  0000              ___brg equ [71]
  64  0000              ___intc2 equ [16]
  65  0000              public _Uart_Init
  66  0000              #pragma debug scope 2 1

  53  0000              #line 53 "C:\ChipsGarden\醇法\MK8002D\UARTtoI2Cwith8bitsMCU\Uart.c"
  53  0000              _Uart_Init .section 'code'
  53  0000              _Uart_Init proc
  58  0000              #line 58 "C:\ChipsGarden\醇法\MK8002D\UARTtoI2Cwith8bitsMCU\Uart.c"
  58  0000  3541        	clr [65].2
  59  0001              #line 59 "C:\ChipsGarden\醇法\MK8002D\UARTtoI2Cwith8bitsMCU\Uart.c"
  59  0001  3540        	clr [64].2
  61  0002              #line 61 "C:\ChipsGarden\醇法\MK8002D\UARTtoI2Cwith8bitsMCU\Uart.c"
  61  0002  35C1        	clr [65].3
  62  0003              #line 62 "C:\ChipsGarden\醇法\MK8002D\UARTtoI2Cwith8bitsMCU\Uart.c"
  62  0003  3241        	set [65].4
  63  0004              #line 63 "C:\ChipsGarden\醇法\MK8002D\UARTtoI2Cwith8bitsMCU\Uart.c"
  63  0004  31C0        	set [64].3
  64  0005              #line 64 "C:\ChipsGarden\醇法\MK8002D\UARTtoI2Cwith8bitsMCU\Uart.c"
  64  0005  3240        	set [64].4
  66  0006              #line 66 "C:\ChipsGarden\醇法\MK8002D\UARTtoI2Cwith8bitsMCU\Uart.c"
  66  0006  0F80        	mov a,128
  66  0007  00C5        	mov [69],a
  67  0008              #line 67 "C:\ChipsGarden\醇法\MK8002D\UARTtoI2Cwith8bitsMCU\Uart.c"
  67  0008  0FEF        	mov a,239
  67  0009  00C6        	mov [70],a
  68  000A              #line 68 "C:\ChipsGarden\醇法\MK8002D\UARTtoI2Cwith8bitsMCU\Uart.c"
  68  000A  3146        	set [70].2
  70  000B              #line 70 "C:\ChipsGarden\醇法\MK8002D\UARTtoI2Cwith8bitsMCU\Uart.c"
  70  000B  0F26        	mov a,38
  70  000C  00C7        	mov [71],a
  75  000D              #line 75 "C:\ChipsGarden\醇法\MK8002D\UARTtoI2Cwith8bitsMCU\Uart.c"
  75  000D  3190        	set [16].3
  75  000E  0003        	ret
  75  000F              _Uart_Init endp
  75  000F              #line 75 "C:\ChipsGarden\醇法\MK8002D\UARTtoI2Cwith8bitsMCU\Uart.c"
  75  000F              #pragma debug scope 1 1
  75  000F              public _Uart_off
  75  000F              #pragma debug scope 3 1
  90  000F              #line 90 "C:\ChipsGarden\醇法\MK8002D\UARTtoI2Cwith8bitsMCU\Uart.c"
  90  0000              _Uart_off .section 'code'
  90  0000              _Uart_off proc
  91  0000              #line 91 "C:\ChipsGarden\醇法\MK8002D\UARTtoI2Cwith8bitsMCU\Uart.c"
  91  0000  3546        	clr [70].2
  97  0001              #line 97 "C:\ChipsGarden\醇法\MK8002D\UARTtoI2Cwith8bitsMCU\Uart.c"
  97  0001  3141        	set [65].2
  98  0002              #line 98 "C:\ChipsGarden\醇法\MK8002D\UARTtoI2Cwith8bitsMCU\Uart.c"
  98  0002  3140        	set [64].2
 100  0003              #line 100 "C:\ChipsGarden\醇法\MK8002D\UARTtoI2Cwith8bitsMCU\Uart.c"
 100  0003  31C1        	set [65].3
 101  0004              #line 101 "C:\ChipsGarden\醇法\MK8002D\UARTtoI2Cwith8bitsMCU\Uart.c"
 101  0004  3241        	set [65].4
 101  0005  0003        	ret
 101  0006              _Uart_off endp
 101  0006              #line 101 "C:\ChipsGarden\醇法\MK8002D\UARTtoI2Cwith8bitsMCU\Uart.c"
 101  0006              #pragma debug scope 1 1
 101  0006              ___usr equ [68]
"File: Uart.c        Assembler  Version HGASM0202      Page 3

 101  0006              ___txr_rxr equ [72]
 101  0006              public _UART_ISR
 101  0006              #pragma debug scope 4 1
 116  0006              #line 116 "C:\ChipsGarden\醇法\MK8002D\UARTtoI2Cwith8bitsMCU\Uart.c"
 116  0000              @UART_ISR_code .section at 44 'code'
 116  0000  0080     E  	mov r1,a
 116  0001  0704        	mov a,bp
 116  0002  0080     E  	mov r2,a
 116  0003  2800     R  	jmp _UART_ISR
 116  0004              #pragma debug scope 1 1
 116  0004              @dummy44 endp
 116  0004              #pragma debug scope 5 1
 116  0000              _UART_ISR .section 'code'
 116  0000              _UART_ISR proc
 116  0000  070A        	mov a,status
 116  0001  0080     E  	mov r3,a
 116  0002  0703        	mov a,mp
 116  0003  0080     E  	mov r4,a
 116  0004  0701        	mov a,sbp
 116  0005  0080     E  	mov r5,a
 116  0006  0707        	mov a,tblp
 116  0007  0080     E  	mov r6,a
 116  0008  0709        	mov a,tbhp
 116  0009  0080     E  	mov r7,a
 119  000A              #line 119 "C:\ChipsGarden\醇法\MK8002D\UARTtoI2Cwith8bitsMCU\Uart.c"
 119  000A  3FC4        	sz [68].7
 119  000B  2800     R  	jmp _L4
 119  000C              #line 119 "C:\ChipsGarden\醇法\MK8002D\UARTtoI2Cwith8bitsMCU\Uart.c"
 119  000C  3F44        	sz [68].6
 119  000D  2800     R  	jmp _L4
 119  000E  3EC4        	sz [68].5
 119  000F  2800     R  	jmp _L4
 119  0010  3A44        	snz [68].4
 119  0011  2800     R  	jmp _L5
 119  0012              _L4:
 121  0012              #line 121 "C:\ChipsGarden\醇法\MK8002D\UARTtoI2Cwith8bitsMCU\Uart.c"
 121  0012  0744        	mov a,[68]
 121  0013  0080     E  	mov ra,a
 122  0014              #line 122 "C:\ChipsGarden\醇法\MK8002D\UARTtoI2Cwith8bitsMCU\Uart.c"
 122  0014  0748        	mov a,[72]
 122  0015  0080     E  	mov ra,a
 122  0016  2800     R  	jmp _L3
 122  0017              _L5:
 126  0017              #line 126 "C:\ChipsGarden\醇法\MK8002D\UARTtoI2Cwith8bitsMCU\Uart.c"
 126  0017  3944        	snz [68].2
 126  0018  2800     R  	jmp _L7
 128  0019              #line 128 "C:\ChipsGarden\醇法\MK8002D\UARTtoI2Cwith8bitsMCU\Uart.c"
 128  0019  3540        	clr [64].2
 130  001A              #line 130 "C:\ChipsGarden\醇法\MK8002D\UARTtoI2Cwith8bitsMCU\Uart.c"
 130  001A  0F00     R  	mov a,low offset _array_uart_rxbuff
 130  001B  0300     R  	add a,_gu8v_rx_guide[0]
 130  001C  0083        	mov mp,a
 130  001D  0F00     R  	mov a,high offset _array_uart_rxbuff
 130  001E  1F01        	clr sbp
 130  001F  1381        	adcm a,sbp
 130  0020  0701        	mov a,sbp
 130  0021  0084        	mov bp,a
 130  0022  0748        	mov a,[72]
 130  0023  0082        	mov ir,a
 132  0024              #line 132 "C:\ChipsGarden\醇法\MK8002D\UARTtoI2Cwith8bitsMCU\Uart.c"
"File: Uart.c        Assembler  Version HGASM0202      Page 4

 132  0024  0F00     R  	mov a,low offset _array_uart_rxbuff
 132  0025  0300     R  	add a,_gu8v_rx_guide[0]
 132  0026  0083        	mov mp,a
 132  0027  0F00     R  	mov a,high offset _array_uart_rxbuff
 132  0028  1F01        	clr sbp
 132  0029  1381        	adcm a,sbp
 132  002A  2000     E  	call _Crom2Prom
 132  002B  0080     E  	mov ra,a
 132  002C  0700     E  	mov a,ra
 132  002D  0A0A        	sub a,10
 132  002E  390A        	snz z
 132  002F  2800     R  	jmp _L8
 134  0030              #line 134 "C:\ChipsGarden\醇法\MK8002D\UARTtoI2Cwith8bitsMCU\Uart.c"
 134  0030  3000     R  	set _gu8v_uart_flag[0].1
 134  0031              _L8:
 138  0031              #line 138 "C:\ChipsGarden\醇法\MK8002D\UARTtoI2Cwith8bitsMCU\Uart.c"
 138  0031  0F04        	mov a,4
 138  0032  0200     R  	sub a,_gu8v_rx_guide[0]
 138  0033  3C0A        	sz c
 138  0034  2800     R  	jmp _L9
 140  0035              #line 140 "C:\ChipsGarden\醇法\MK8002D\UARTtoI2Cwith8bitsMCU\Uart.c"
 140  0035  1F00     R  	clr _gu8v_rx_guide[0]
 140  0036  2800     R  	jmp _L10
 140  0037              _L9:
 144  0037              #line 144 "C:\ChipsGarden\醇法\MK8002D\UARTtoI2Cwith8bitsMCU\Uart.c"
 144  0037  1480     R  	inc _gu8v_rx_guide[0]
 144  0038              _L10:
 147  0038              #line 147 "C:\ChipsGarden\醇法\MK8002D\UARTtoI2Cwith8bitsMCU\Uart.c"
 147  0038              ;# 147 "C:\ChipsGarden\醇法\MK8002D\UARTtoI2Cwith8bitsMCU\Uart.c" 1
 147  0038  0000        	nop
 147  0039              _L7:
 149  0039              #line 149 "C:\ChipsGarden\醇法\MK8002D\UARTtoI2Cwith8bitsMCU\Uart.c"
 149  0039  3844        	snz [68].0
 149  003A  2800     R  	jmp _L3
 151  003B              #line 151 "C:\ChipsGarden\醇法\MK8002D\UARTtoI2Cwith8bitsMCU\Uart.c"
 151  003B  1480     R  	inc _gu8v_tx_guide[0]
 152  003C              #line 152 "C:\ChipsGarden\醇法\MK8002D\UARTtoI2Cwith8bitsMCU\Uart.c"
 152  003C  0F06        	mov a,6
 152  003D  0200     R  	sub a,_gu8v_tx_guide[0]
 152  003E  380A        	snz c
 152  003F  2800     R  	jmp _L11
 154  0040              #line 154 "C:\ChipsGarden\醇法\MK8002D\UARTtoI2Cwith8bitsMCU\Uart.c"
 154  0040  3140        	set [64].2
 156  0041              #line 156 "C:\ChipsGarden\醇法\MK8002D\UARTtoI2Cwith8bitsMCU\Uart.c"
 156  0041  0F00     R  	mov a,low offset _array_uart_txbuff
 156  0042  0300     R  	add a,_gu8v_tx_guide[0]
 156  0043  0083        	mov mp,a
 156  0044  0F00     R  	mov a,high offset _array_uart_txbuff
 156  0045  1F01        	clr sbp
 156  0046  1381        	adcm a,sbp
 156  0047  2000     E  	call _Crom2Prom
 156  0048  00C8        	mov [72],a
 156  0049  2800     R  	jmp _L3
 156  004A              _L11:
 161  004A              #line 161 "C:\ChipsGarden\醇法\MK8002D\UARTtoI2Cwith8bitsMCU\Uart.c"
 161  004A  1F00     R  	clr _gu8v_tx_guide[0]
 163  004B              #line 163 "C:\ChipsGarden\醇法\MK8002D\UARTtoI2Cwith8bitsMCU\Uart.c"
 163  004B  3540        	clr [64].2
 163  004C              _L3:
 163  004C  0700     E  	mov a,r2
"File: Uart.c        Assembler  Version HGASM0202      Page 5

 163  004D  0084        	mov bp,a
 163  004E  0700     E  	mov a,r3
 163  004F  008A        	mov status,a
 163  0050  0700     E  	mov a,r4
 163  0051  0083        	mov mp,a
 163  0052  0700     E  	mov a,r5
 163  0053  0081        	mov sbp,a
 163  0054  0700     E  	mov a,r6
 163  0055  0087        	mov tblp,a
 163  0056  0700     E  	mov a,r7
 163  0057  0089        	mov tbhp,a
 163  0058  1D05        	tabrdc acc
 163  0059  0700     E  	mov a,r1
 163  005A  0004        	reti
 163  005B              _UART_ISR endp
 163  005B              
 163  005B              #line 163 "C:\ChipsGarden\醇法\MK8002D\UARTtoI2Cwith8bitsMCU\Uart.c"
 163  005B              #pragma debug scope 1 1
 163  005B              public _Uart_manage
 163  005B              #pragma debug scope 6 1
 177  005B              #line 177 "C:\ChipsGarden\醇法\MK8002D\UARTtoI2Cwith8bitsMCU\Uart.c"
 177  0000              _Uart_manage .section 'code'
 177  0000              _Uart_manage proc
 178  0000              #line 178 "C:\ChipsGarden\醇法\MK8002D\UARTtoI2Cwith8bitsMCU\Uart.c"
 178  0000  3800     R  	snz _gu8v_uart_flag[0].1
 178  0001  2800     R  	jmp _L19
 180  0002              #line 180 "C:\ChipsGarden\醇法\MK8002D\UARTtoI2Cwith8bitsMCU\Uart.c"
 180  0002  3400     R  	clr _gu8v_uart_flag[0].1
 181  0003              #line 181 "C:\ChipsGarden\醇法\MK8002D\UARTtoI2Cwith8bitsMCU\Uart.c"
 181  0003  0700     R  	mov a,_array_uart_rxbuff[0]
 181  0004  0A2F        	sub a,47
 181  0005  390A        	snz z
 181  0006  2800     R  	jmp _L21
 181  0007  0700     R  	mov a,_array_uart_rxbuff[5]
 181  0008  0A0A        	sub a,10
 181  0009  390A        	snz z
 181  000A  2800     R  	jmp _L21
 183  000B              #line 183 "C:\ChipsGarden\醇法\MK8002D\UARTtoI2Cwith8bitsMCU\Uart.c"
 183  000B  0700     R  	mov a,_array_uart_rxbuff[1]
 183  000C  0080     E  	mov ra,a
 183  000D  2800     R  	jmp _L19
 183  000E              _L21:
 202  000E              #line 202 "C:\ChipsGarden\醇法\MK8002D\UARTtoI2Cwith8bitsMCU\Uart.c"
 202  000E  1F00     R  	clr _gu8v_rx_guide[0]
 202  000F              _L19:
 202  000F  0003        	ret
 202  0010              _Uart_manage endp
 202  0010              #line 202 "C:\ChipsGarden\醇法\MK8002D\UARTtoI2Cwith8bitsMCU\Uart.c"
 202  0010              #pragma debug scope 1 1
 202  0010              public _Uart_TX_Send_Test
 202  0010              #pragma debug scope 7 1
 215  0010              #line 215 "C:\ChipsGarden\醇法\MK8002D\UARTtoI2Cwith8bitsMCU\Uart.c"
 215  0000              _Uart_TX_Send_Test .section 'code'
 215  0000              _Uart_TX_Send_Test proc
 215  0000              public _Uart_TX_Send_Test_2
 215  0000  0002[           local _Uart_TX_Send_Test_2 db 2 dup(?)	; 2,0
            00
            ]
 215  0002              #pragma debug variable 12 7 _Uart_TX_Send_Test_2+0 "lu16v_tx_data"
 216  0002              #line 216 "C:\ChipsGarden\醇法\MK8002D\UARTtoI2Cwith8bitsMCU\Uart.c"
"File: Uart.c        Assembler  Version HGASM0202      Page 6

 216  0000  0F01        	mov a,1
 216  0001  0080     R  	mov _gu8v_tx_guide[0],a
 217  0002              #line 217 "C:\ChipsGarden\醇法\MK8002D\UARTtoI2Cwith8bitsMCU\Uart.c"
 217  0002  0F55        	mov a,85
 217  0003  0080     R  	mov _array_uart_txbuff[0],a
 218  0004              #line 218 "C:\ChipsGarden\醇法\MK8002D\UARTtoI2Cwith8bitsMCU\Uart.c"
 218  0004  1F00     R  	clr _array_uart_txbuff[1]
 219  0005              #line 219 "C:\ChipsGarden\醇法\MK8002D\UARTtoI2Cwith8bitsMCU\Uart.c"
 219  0005  0700     R  	mov a,_Uart_TX_Send_Test_2[0]
 219  0006  0080     R  	mov _array_uart_txbuff[2],a
 220  0007              #line 220 "C:\ChipsGarden\醇法\MK8002D\UARTtoI2Cwith8bitsMCU\Uart.c"
 220  0007  0700     R  	mov a,_Uart_TX_Send_Test_2[1]
 220  0008  0080     R  	mov _array_uart_txbuff[3],a
 221  0009              #line 221 "C:\ChipsGarden\醇法\MK8002D\UARTtoI2Cwith8bitsMCU\Uart.c"
 221  0009  1F00     R  	clr _array_uart_txbuff[4]
 222  000A              #line 222 "C:\ChipsGarden\醇法\MK8002D\UARTtoI2Cwith8bitsMCU\Uart.c"
 222  000A  0700     R  	mov a,_array_uart_txbuff[3]
 222  000B  0300     R  	add a,_array_uart_txbuff[2]
 222  000C  0080     E  	mov rb,a
 222  000D  0700     R  	mov a,_array_uart_txbuff[4]
 222  000E  0380     E  	addm a,rb
 222  000F  0700     R  	mov a,_array_uart_txbuff[1]
 222  0010  0300     R  	add a,_array_uart_txbuff[0]
 222  0011  0080     E  	mov ra,a
 222  0012  0700     E  	mov a,rb
 222  0013  0300     E  	add a,ra
 222  0014  0080     R  	mov _array_uart_txbuff[5],a
 224  0015              #line 224 "C:\ChipsGarden\醇法\MK8002D\UARTtoI2Cwith8bitsMCU\Uart.c"
 224  0015  3140        	set [64].2
 225  0016              #line 225 "C:\ChipsGarden\醇法\MK8002D\UARTtoI2Cwith8bitsMCU\Uart.c"
 225  0016  0700     R  	mov a,_array_uart_txbuff[0]
 225  0017  00C8        	mov [72],a
 227  0018              #line 227 "C:\ChipsGarden\醇法\MK8002D\UARTtoI2Cwith8bitsMCU\Uart.c"
 227  0018  1F00     R  	clr _gu8v_tx_guide[0]
 227  0019  0003        	ret
 227  001A              _Uart_TX_Send_Test endp
 227  001A              #line 227 "C:\ChipsGarden\醇法\MK8002D\UARTtoI2Cwith8bitsMCU\Uart.c"
 227  001A              #pragma debug scope 1 1
  44  001A              #line 44 "C:\ChipsGarden\醇法\MK8002D\UARTtoI2Cwith8bitsMCU\Uart.c"
  44  001A              public _array_uart_rxbuff
  44  0000              @HCCINIT0 .section 'data'
  44  0000  0006[       _array_uart_rxbuff	db 6 dup(0)
            00
            ]
  44  0006              #pragma debug array 42 8 6 1
  44  0006              #pragma debug array 42 8 6 1
  44  0006              #pragma debug variable 42 1 _array_uart_rxbuff "array_uart_rxbuff"
  44  0006              
  44  0000              @HCCINIT .section 'data'
  43  0000              #line 43 "C:\ChipsGarden\醇法\MK8002D\UARTtoI2Cwith8bitsMCU\Uart.c"
  43  0000              public _array_uart_txbuff
  43  0006              @HCCINIT0 .section 'data'
  43  0006  0007[       _array_uart_txbuff	db 7 dup(0)
            00
            ]
  43  000D              #pragma debug array 43 8 7 1
  43  000D              #pragma debug array 43 8 7 1
  43  000D              #pragma debug variable 43 1 _array_uart_txbuff "array_uart_txbuff"
  43  000D              
  43  0000              @HCCINIT .section 'data'
"File: Uart.c        Assembler  Version HGASM0202      Page 7

  42  0000              #line 42 "C:\ChipsGarden\醇法\MK8002D\UARTtoI2Cwith8bitsMCU\Uart.c"
  42  0000              public _gu8v_uart_flag
  42  000D              @HCCINIT0 .section 'data'
  42  000D              _gu8v_uart_flag	db 0
  42  000E              #pragma debug struct_end
  42  000E              #pragma debug struct_end
  42  000E              #pragma debug union_end
  42  000E              #pragma debug union_end
  42  000E              #pragma debug variable 45 1 _gu8v_uart_flag "gu8v_uart_flag"
  42  000E              
  42  0000              @HCCINIT .section 'data'
  41  0000              #line 41 "C:\ChipsGarden\醇法\MK8002D\UARTtoI2Cwith8bitsMCU\Uart.c"
  41  0000              public _gu8v_tx_guide
  41  000E              @HCCINIT0 .section 'data'
  41  000E              _gu8v_tx_guide	db 0
  41  000F              #pragma debug variable 8 1 _gu8v_tx_guide "gu8v_tx_guide"
  41  000F              
  41  0000              @HCCINIT .section 'data'
  40  0000              #line 40 "C:\ChipsGarden\醇法\MK8002D\UARTtoI2Cwith8bitsMCU\Uart.c"
  40  0000              public _gu8v_rx_guide
  40  000F              @HCCINIT0 .section 'data'
  40  000F              _gu8v_rx_guide	db 0
  40  0010              #pragma debug variable 8 1 _gu8v_rx_guide "gu8v_rx_guide"
  40  0010              
  40  0000              @HCCINIT .section 'data'
  40  0000              #pragma debug struct_end
  40  0000              #pragma debug struct_end
  40  0000              #pragma debug union_end
  40  0000              #pragma debug union_end
  40  0000              #pragma debug variable 47 1 ___intc2 "__intc2" 1
  40  0000              #pragma debug struct_end
  40  0000              #pragma debug struct_end
  40  0000              #pragma debug union_end
  40  0000              #pragma debug union_end
  40  0000              #pragma debug variable 49 1 ___pc "__pc" 1
  40  0000              #pragma debug struct_end
  40  0000              #pragma debug struct_end
  40  0000              #pragma debug union_end
  40  0000              #pragma debug union_end
  40  0000              #pragma debug variable 51 1 ___pcc "__pcc" 1
  40  0000              #pragma debug struct_end
  40  0000              #pragma debug struct_end
  40  0000              #pragma debug union_end
  40  0000              #pragma debug union_end
  40  0000              #pragma debug variable 53 1 ___usr "__usr" 1
  40  0000              #pragma debug struct_end
  40  0000              #pragma debug struct_end
  40  0000              #pragma debug union_end
  40  0000              #pragma debug union_end
  40  0000              #pragma debug variable 55 1 ___ucr1 "__ucr1" 1
  40  0000              #pragma debug struct_end
  40  0000              #pragma debug struct_end
  40  0000              #pragma debug union_end
  40  0000              #pragma debug union_end
  40  0000              #pragma debug variable 57 1 ___ucr2 "__ucr2" 1
  40  0000              #pragma debug struct_end
  40  0000              #pragma debug struct_end
  40  0000              #pragma debug union_end
  40  0000              #pragma debug union_end
  40  0000              #pragma debug variable 59 1 ___brg "__brg" 1
"File: Uart.c        Assembler  Version HGASM0202      Page 8

  40  0000              #pragma debug struct_end
  40  0000              #pragma debug struct_end
  40  0000              #pragma debug union_end
  40  0000              #pragma debug union_end
  40  0000              #pragma debug variable 61 1 ___txr_rxr "__txr_rxr" 1
  40  0000              extern r1:byte
  40  0000              extern r2:byte
  40  0000              extern r3:byte
  40  0000              extern r4:byte
  40  0000              extern r5:byte
  40  0000              extern r6:byte
  40  0000              extern r7:byte
  40  0000              
  40  0000              ; 
  40  0000              ; Generated by holtek-gcc v3.19, Tue Jul 23 17:13:50 2019
  40  0000              ; Rebuild 115
  40  0000              ; end of file


        0 Errors, 0