"File: ADC.c         Assembler  Version HGASM0202      Page 1


   1  0000              ; Generated by holtek-gcc v3.19, Sat Jul 18 17:12:37 2020
   2  0000              ; 
   3  0000              ; Configuration:
   4  0000              ;       without long instruction
   5  0000              ;       Single ROM, Multi-RAM
   6  0000              ;       bits_per_rom_unit:16
   7  0000              ;       with mp1
   8  0000              ;       with tbhp, address(0x9)
   9  0000              ;          Use tabrd-const
  10  0000              ;       
  11  0000              ;       
  12  0000              ;       
  13  0000              ; use 'tabrdc' instead of 'tabrd'
  14  0000              ;       
  15  0000              
  16  0000              #pragma translator "holtek-gcc 4.6.4" "3.19" "build 20130711"
  17  0000              ; Rebuild 115
  18  0000              
  19  0000              ir equ [2]
  20  0000              mp equ [3]
  21  0000              sbp equ [1]
  22  0000              acc equ [5]
  23  0000              bp equ [4]
  24  0000              tblp equ [7]
  25  0000              tbhp equ [9]
  26  0000              status equ [10]
  27  0000              c equ [10].0
  28  0000              ac equ [10].1
  29  0000              z equ [10].2
  30  0000              ov equ [10].3
  31  0000              intc equ [11]
  32  0000              
  33  0000              extern ra:byte
  34  0000              extern rb:byte
  35  0000              extern rc:byte
  36  0000              extern rd:byte
  37  0000              extern re:byte
  38  0000              extern rf:byte
  39  0000              extern rg:byte
  40  0000              extern rh:byte
  41  0000              extern _Crom2Prom:near
  42  0000              extern _Crom2PromNext:near
  43  0000              
  44  0000              RAMBANK 0 @HCCINIT, @HCCINIT0
  45  0000              
  46  0000              RAMBANK 0 @BITDATASEC, @BITDATASEC1
  47  0000              @HCCINIT	.section 'data'
  48  0000              @HCCINIT0	.section 'data'
  49  0000              @BITDATASEC	 .section 'data'
  50  0000              @BITDATASEC1	 .section 'data'
  51  0000              
  52  0000              #pragma debug scope 1 1
  53  0000              	extern __DELAY3:near
  54  0000              	extern __DELAYX3:near
  55  0000              	extern __DELAYX6:near
  56  0000              	extern __DELAYY5:near
  57  0000              	extern __DELAYY3:near
  58  0000              	extern _builtin_holtek_delay_2:byte
  59  0000              ___sadc0 equ [34]
"File: ADC.ASM       Assembler  Version HGASM0202      Page 2

  60  0000              ___sadc1 equ [35]
  61  0000              ___sadc2 equ [36]
  62  0000              ___acerl equ [67]
  63  0000              ___sadol equ [32]
  64  0000              ___sadoh equ [33]
  65  0000              public _Get_ADC
  66  0000              #pragma debug scope 2 1

  23  0000              #line 23 "C:\ChipsGarden\醇法\MK8002D\UART2EEPROMwith8bitsMCU\UART2EEPROMwith8bitsMCU\ADC.c"
  23  0000              _Get_ADC .section 'code'
  23  0000              _Get_ADC proc
  23  0000  00              local _Get_ADC_2 db 1 dup(?)	; 0,1
  23  0000  0080     E  	mov ra,a
  23  0001  0080     R  	mov _Get_ADC_2[0],a
  23  0002              #pragma debug variable 8 2 _Get_ADC_2+0 "lu8c_adc_channel"
  26  0002              #line 26 "C:\ChipsGarden\醇法\MK8002D\UART2EEPROMwith8bitsMCU\UART2EEPROMwith8bitsMCU\ADC.c"
  26  0002  0F37        	mov a,55
  26  0003  00A2        	mov [34],a
  27  0004              #line 27 "C:\ChipsGarden\醇法\MK8002D\UART2EEPROMwith8bitsMCU\UART2EEPROMwith8bitsMCU\ADC.c"
  27  0004  0F23        	mov a,35
  27  0005  00A3        	mov [35],a
  28  0006              #line 28 "C:\ChipsGarden\醇法\MK8002D\UART2EEPROMwith8bitsMCU\UART2EEPROMwith8bitsMCU\ADC.c"
  28  0006  1F24        	clr [36]
  30  0007              #line 30 "C:\ChipsGarden\醇法\MK8002D\UART2EEPROMwith8bitsMCU\UART2EEPROMwith8bitsMCU\ADC.c"
  30  0007  1F43        	clr [67]
  32  0008              #line 32 "C:\ChipsGarden\醇法\MK8002D\UART2EEPROMwith8bitsMCU\UART2EEPROMwith8bitsMCU\ADC.c"
  32  0008  0700     E  	mov a,ra
  32  0009  0A00        	sub a,0
  32  000A  3D0A        	sz z
  32  000B  2800     R  	jmp _L3
  32  000C  0A01        	sub a,(1)-(0)
  32  000D  3D0A        	sz z
  32  000E  2800     R  	jmp _L4
  32  000F              #line 32 "C:\ChipsGarden\醇法\MK8002D\UART2EEPROMwith8bitsMCU\UART2EEPROMwith8bitsMCU\ADC.c"
  32  000F  0700     E  	mov a,ra
  32  0010  0A02        	sub a,2
  32  0011  3D0A        	sz z
  32  0012  2800     R  	jmp _L5
  32  0013  0A01        	sub a,(3)-(2)
  32  0014  3D0A        	sz z
  32  0015  2800     R  	jmp _L6
  32  0016  0700     E  	mov a,ra
  32  0017  0A04        	sub a,4
  32  0018  3D0A        	sz z
  32  0019  2800     R  	jmp _L7
  32  001A  0A01        	sub a,(5)-(4)
  32  001B  3D0A        	sz z
  32  001C  2800     R  	jmp _L8
  32  001D  0700     E  	mov a,ra
  32  001E  0A06        	sub a,6
  32  001F  390A        	snz z
  32  0020  2800     R  	jmp _L2
  40  0021              #line 40 "C:\ChipsGarden\醇法\MK8002D\UART2EEPROMwith8bitsMCU\UART2EEPROMwith8bitsMCU\ADC.c"
  40  0021  3422        	clr [34].0
  40  0022  2800     R  	jmp _L2
  40  0023              _L3:
  34  0023              #line 34 "C:\ChipsGarden\醇法\MK8002D\UART2EEPROMwith8bitsMCU\UART2EEPROMwith8bitsMCU\ADC.c"
  34  0023  0FF8        	mov a,248
  34  0024  06A2        	andm a,[34]
  34  0025  2800     R  	jmp _L2
"File: ADC.c         Assembler  Version HGASM0202      Page 3

  34  0026              _L4:
  35  0026              #line 35 "C:\ChipsGarden\醇法\MK8002D\UART2EEPROMwith8bitsMCU\UART2EEPROMwith8bitsMCU\ADC.c"
  35  0026  0FF9        	mov a,249
  35  0027  06A2        	andm a,[34]
  35  0028  2800     R  	jmp _L2
  35  0029              _L5:
  36  0029              #line 36 "C:\ChipsGarden\醇法\MK8002D\UART2EEPROMwith8bitsMCU\UART2EEPROMwith8bitsMCU\ADC.c"
  36  0029  0FFA        	mov a,250
  36  002A  06A2        	andm a,[34]
  36  002B  2800     R  	jmp _L2
  36  002C              _L6:
  37  002C              #line 37 "C:\ChipsGarden\醇法\MK8002D\UART2EEPROMwith8bitsMCU\UART2EEPROMwith8bitsMCU\ADC.c"
  37  002C  3522        	clr [34].2
  37  002D  2800     R  	jmp _L2
  37  002E              _L7:
  38  002E              #line 38 "C:\ChipsGarden\醇法\MK8002D\UART2EEPROMwith8bitsMCU\UART2EEPROMwith8bitsMCU\ADC.c"
  38  002E  0FFC        	mov a,252
  38  002F  06A2        	andm a,[34]
  38  0030  2800     R  	jmp _L2
  38  0031              _L8:
  39  0031              #line 39 "C:\ChipsGarden\醇法\MK8002D\UART2EEPROMwith8bitsMCU\UART2EEPROMwith8bitsMCU\ADC.c"
  39  0031  34A2        	clr [34].1
  39  0032              _L2:
  44  0032              #line 44 "C:\ChipsGarden\醇法\MK8002D\UART2EEPROMwith8bitsMCU\UART2EEPROMwith8bitsMCU\ADC.c"
  44  0032  32A2        	set [34].5
  46  0033              #line 46 "C:\ChipsGarden\醇法\MK8002D\UART2EEPROMwith8bitsMCU\UART2EEPROMwith8bitsMCU\ADC.c"
  46  0033              ;# 46 "C:\ChipsGarden\醇法\MK8002D\UART2EEPROMwith8bitsMCU\UART2EEPROMwith8bitsMCU\ADC.c" 1
  46  0033              	IF 20>263690
  46  0033              ;# 46 "C:\ChipsGarden\醇法\MK8002D\UART2EEPROMwith8bitsMCU\UART2EEPROMwith8bitsMCU\ADC.c" 1
  46  0033              	ERRMESSAGE 'the value 20of the argument exceeds the maxinum 263690'
  46  0033              	ENDIF
  46  0033              ;# 46 "C:\ChipsGarden\醇法\MK8002D\UART2EEPROMwith8bitsMCU\UART2EEPROMwith8bitsMCU\ADC.c" 1
  46  0033              	IF 20<0
  46  0033              ;# 46 "C:\ChipsGarden\醇法\MK8002D\UART2EEPROMwith8bitsMCU\UART2EEPROMwith8bitsMCU\ADC.c" 1
  46  0033              	ERRMESSAGE 'the value 20 of the argument exceeds the mininum 0'
  46  0033              	ENDIF
  46  0033              ;# 46 "C:\ChipsGarden\醇法\MK8002D\UART2EEPROMwith8bitsMCU\UART2EEPROMwith8bitsMCU\ADC.c" 1
  46  0033              	IF 20==0
  46  0033              ;# 46 "C:\ChipsGarden\醇法\MK8002D\UART2EEPROMwith8bitsMCU\UART2EEPROMwith8bitsMCU\ADC.c" 1
  46  0033              	JMP $
  46  0033              	ENDIF
  46  0033              ;# 46 "C:\ChipsGarden\醇法\MK8002D\UART2EEPROMwith8bitsMCU\UART2EEPROMwith8bitsMCU\ADC.c" 1
  46  0033              	IF 20==1
  46  0033              ;# 46 "C:\ChipsGarden\醇法\MK8002D\UART2EEPROMwith8bitsMCU\UART2EEPROMwith8bitsMCU\ADC.c" 1
  46  0033              	NOP
  46  0033              	ENDIF
  46  0033              ;# 46 "C:\ChipsGarden\醇法\MK8002D\UART2EEPROMwith8bitsMCU\UART2EEPROMwith8bitsMCU\ADC.c" 1
  46  0033              	IF 20==2
  46  0033              ;# 46 "C:\ChipsGarden\醇法\MK8002D\UART2EEPROMwith8bitsMCU\UART2EEPROMwith8bitsMCU\ADC.c" 1
  46  0033              	NOP
  46  0033              ;# 46 "C:\ChipsGarden\醇法\MK8002D\UART2EEPROMwith8bitsMCU\UART2EEPROMwith8bitsMCU\ADC.c" 1
  46  0033              	NOP
  46  0033              	ENDIF
  46  0033              ;# 46 "C:\ChipsGarden\醇法\MK8002D\UART2EEPROMwith8bitsMCU\UART2EEPROMwith8bitsMCU\ADC.c" 1
  46  0033              	IF 20==3
  46  0033              ;# 46 "C:\ChipsGarden\醇法\MK8002D\UART2EEPROMwith8bitsMCU\UART2EEPROMwith8bitsMCU\ADC.c" 1
  46  0033              	NOP
  46  0033              ;# 46 "C:\ChipsGarden\醇法\MK8002D\UART2EEPROMwith8bitsMCU\UART2EEPROMwith8bitsMCU\ADC.c" 1
  46  0033              	NOP
  46  0033              ;# 46 "C:\ChipsGarden\醇法\MK8002D\UART2EEPROMwith8bitsMCU\UART2EEPROMwith8bitsMCU\ADC.c" 1
"File: ADC.c         Assembler  Version HGASM0202      Page 4

  46  0033              	NOP
  46  0033              	ENDIF
  46  0033              ;# 46 "C:\ChipsGarden\醇法\MK8002D\UART2EEPROMwith8bitsMCU\UART2EEPROMwith8bitsMCU\ADC.c" 1
  46  0033              	IF (20<8) AND (20>3)
  46  0033              ;# 46 "C:\ChipsGarden\醇法\MK8002D\UART2EEPROMwith8bitsMCU\UART2EEPROMwith8bitsMCU\ADC.c" 1
  46  0033              	CALL __DELAY3 + 7 -20
  46  0033              	ENDIF
  46  0033              ;# 46 "C:\ChipsGarden\醇法\MK8002D\UART2EEPROMwith8bitsMCU\UART2EEPROMwith8bitsMCU\ADC.c" 1
  46  0033              	IF (20< 0404h) AND (20>7)
  46  0033              ;# 46 "C:\ChipsGarden\醇法\MK8002D\UART2EEPROMwith8bitsMCU\UART2EEPROMwith8bitsMCU\ADC.c" 1
  46  0033  0F04        	MOV A,20/4-1
  46  0034              ;# 46 "C:\ChipsGarden\醇法\MK8002D\UART2EEPROMwith8bitsMCU\UART2EEPROMwith8bitsMCU\ADC.c" 1
  46  0034  2000     E  	CALL __DELAYX3 + 3 -(20 MOD 4)
  46  0035              	ENDIF
  46  0035              ;# 46 "C:\ChipsGarden\醇法\MK8002D\UART2EEPROMwith8bitsMCU\UART2EEPROMwith8bitsMCU\ADC.c" 1
  46  0035              	IF (20< 0x40B) AND (20> 0403h)
  46  0035              ;# 46 "C:\ChipsGarden\醇法\MK8002D\UART2EEPROMwith8bitsMCU\UART2EEPROMwith8bitsMCU\ADC.c" 1
  46  0035              	MOV A,0 
  46  0035              ;# 46 "C:\ChipsGarden\醇法\MK8002D\UART2EEPROMwith8bitsMCU\UART2EEPROMwith8bitsMCU\ADC.c" 1
  46  0035              	CALL __DELAYX6 + 0x40a -20
  46  0035              	ENDIF
  46  0035              ;# 46 "C:\ChipsGarden\醇法\MK8002D\UART2EEPROMwith8bitsMCU\UART2EEPROMwith8bitsMCU\ADC.c" 1
  46  0035              	IF (20 >= 0x40b) AND ((((20-9)%0402h)/4+1)>256)
  46  0035              ;# 46 "C:\ChipsGarden\醇法\MK8002D\UART2EEPROMwith8bitsMCU\UART2EEPROMwith8bitsMCU\ADC.c" 1
  46  0035              	MOV A,(20-9)/0402h
  46  0035              ;# 46 "C:\ChipsGarden\醇法\MK8002D\UART2EEPROMwith8bitsMCU\UART2EEPROMwith8bitsMCU\ADC.c" 1
  46  0035              	MOV _builtin_holtek_delay_2,A
  46  0035              ;# 46 "C:\ChipsGarden\醇法\MK8002D\UART2EEPROMwith8bitsMCU\UART2EEPROMwith8bitsMCU\ADC.c" 1
  46  0035              	MOV A,0
  46  0035              ;# 46 "C:\ChipsGarden\醇法\MK8002D\UART2EEPROMwith8bitsMCU\UART2EEPROMwith8bitsMCU\ADC.c" 1
  46  0035              	CALL __DELAYY5 +5- (((20-9)%0402h)%6)
  46  0035              	ENDIF
  46  0035              ;# 46 "C:\ChipsGarden\醇法\MK8002D\UART2EEPROMwith8bitsMCU\UART2EEPROMwith8bitsMCU\ADC.c" 1
  46  0035              	IF (20 >= 0x40b) AND ((((20-9)%0402h)/4+1)<=256)
  46  0035              ;# 46 "C:\ChipsGarden\醇法\MK8002D\UART2EEPROMwith8bitsMCU\UART2EEPROMwith8bitsMCU\ADC.c" 1
  46  0035              	MOV A,(20-9)/0402h
  46  0035              ;# 46 "C:\ChipsGarden\醇法\MK8002D\UART2EEPROMwith8bitsMCU\UART2EEPROMwith8bitsMCU\ADC.c" 1
  46  0035              	MOV _builtin_holtek_delay_2,A
  46  0035              ;# 46 "C:\ChipsGarden\醇法\MK8002D\UART2EEPROMwith8bitsMCU\UART2EEPROMwith8bitsMCU\ADC.c" 1
  46  0035              	MOV A,((20-9)%0402h)/4+1
  46  0035              ;# 46 "C:\ChipsGarden\醇法\MK8002D\UART2EEPROMwith8bitsMCU\UART2EEPROMwith8bitsMCU\ADC.c" 1
  46  0035              	CALL __DELAYY3 +3-(((20-9)%0402h)%4)
  46  0035              	ENDIF
  47  0035              #line 47 "C:\ChipsGarden\醇法\MK8002D\UART2EEPROMwith8bitsMCU\UART2EEPROMwith8bitsMCU\ADC.c"
  47  0035  37A2        	clr [34].7
  48  0036              #line 48 "C:\ChipsGarden\醇法\MK8002D\UART2EEPROMwith8bitsMCU\UART2EEPROMwith8bitsMCU\ADC.c"
  48  0036  33A2        	set [34].7
  49  0037              #line 49 "C:\ChipsGarden\醇法\MK8002D\UART2EEPROMwith8bitsMCU\UART2EEPROMwith8bitsMCU\ADC.c"
  49  0037  37A2        	clr [34].7
  49  0038              _L12:
  50  0038              #line 50 "C:\ChipsGarden\醇法\MK8002D\UART2EEPROMwith8bitsMCU\UART2EEPROMwith8bitsMCU\ADC.c"
  50  0038  3F22        	sz [34].6
  50  0039  2800     R  	jmp _L12
  53  003A              #line 53 "C:\ChipsGarden\醇法\MK8002D\UART2EEPROMwith8bitsMCU\UART2EEPROMwith8bitsMCU\ADC.c"
  53  003A  0720        	mov a,[32]
  53  003B  0080     E  	mov rb,a
  54  003C              #line 54 "C:\ChipsGarden\醇法\MK8002D\UART2EEPROMwith8bitsMCU\UART2EEPROMwith8bitsMCU\ADC.c"
  54  003C  0721        	mov a,[33]
  54  003D  0080     E  	mov rc,a
  55  003E              #line 55 "C:\ChipsGarden\醇法\MK8002D\UART2EEPROMwith8bitsMCU\UART2EEPROMwith8bitsMCU\ADC.c"
"File: ADC.c         Assembler  Version HGASM0202      Page 5

  55  003E  37A2        	clr [34].7
  56  003F              #line 56 "C:\ChipsGarden\醇法\MK8002D\UART2EEPROMwith8bitsMCU\UART2EEPROMwith8bitsMCU\ADC.c"
  56  003F  37A2        	clr [34].7
  58  0040              #line 58 "C:\ChipsGarden\醇法\MK8002D\UART2EEPROMwith8bitsMCU\UART2EEPROMwith8bitsMCU\ADC.c"
  58  0040  0700     E  	mov a,rb
  58  0041  0080     E  	mov ra,a
  58  0042  0700     E  	mov a,rc
  58  0043  0080     E  	mov rb,a
  58  0044  0F04        	mov a,4
  58  0045              _LI1:
  58  0045  340A        	clr c
  58  0046  1B80     E  	rrc rb
  58  0047  1B80     E  	rrc ra
  58  0048  1785        	sdz acc
  58  0049  2800     R  	jmp _LI1
  58  004A  0003        	ret
  58  004B              _Get_ADC endp
  58  004B              #line 58 "C:\ChipsGarden\醇法\MK8002D\UART2EEPROMwith8bitsMCU\UART2EEPROMwith8bitsMCU\ADC.c"
  58  004B              #pragma debug scope 1 1
  58  004B              public _Disable_ADC
  58  004B              #pragma debug scope 3 1
 101  004B              #line 101 "C:\ChipsGarden\醇法\MK8002D\UART2EEPROMwith8bitsMCU\UART2EEPROMwith8bitsMCU\ADC.c"
 101  0000              _Disable_ADC .section 'code'
 101  0000              _Disable_ADC proc
 102  0000              #line 102 "C:\ChipsGarden\醇法\MK8002D\UART2EEPROMwith8bitsMCU\UART2EEPROMwith8bitsMCU\ADC.c"
 102  0000  36A2        	clr [34].5
 102  0001  0003        	ret
 102  0002              _Disable_ADC endp
 102  0002              #line 102 "C:\ChipsGarden\醇法\MK8002D\UART2EEPROMwith8bitsMCU\UART2EEPROMwith8bitsMCU\ADC.c"
 102  0002              #pragma debug scope 1 1
 102  0002              public _TEST_ADC
 102  0002              #pragma debug scope 4 1
 113  0002              #line 113 "C:\ChipsGarden\醇法\MK8002D\UART2EEPROMwith8bitsMCU\UART2EEPROMwith8bitsMCU\ADC.c"
 113  0000              _TEST_ADC .section 'code'
 113  0000              _TEST_ADC proc
 113  0000              _L16:
 117  0000              #line 117 "C:\ChipsGarden\醇法\MK8002D\UART2EEPROMwith8bitsMCU\UART2EEPROMwith8bitsMCU\ADC.c"
 117  0000              ;# 117 "C:\ChipsGarden\醇法\MK8002D\UART2EEPROMwith8bitsMCU\UART2EEPROMwith8bitsMCU\ADC.c" 1
 117  0000  0001        	clr wdt
 118  0001              #line 118 "C:\ChipsGarden\醇法\MK8002D\UART2EEPROMwith8bitsMCU\UART2EEPROMwith8bitsMCU\ADC.c"
 118  0001  0F00        	mov a,0
 118  0002  2000     R  	call _Get_ADC
 118  0003  2800     R  	jmp _L16
 118  0004  0003        	ret
 118  0005              _TEST_ADC endp
 118  0005              #line 118 "C:\ChipsGarden\醇法\MK8002D\UART2EEPROMwith8bitsMCU\UART2EEPROMwith8bitsMCU\ADC.c"
 118  0005              #pragma debug scope 1 1
 118  0005              #pragma debug variable 8 1 ___sadol "__sadol" 1
 118  0005              #pragma debug variable 8 1 ___sadoh "__sadoh" 1
 118  0005              #pragma debug struct_end
 118  0005              #pragma debug struct_end
 118  0005              #pragma debug union_end
 118  0005              #pragma debug union_end
 118  0005              #pragma debug variable 43 1 ___sadc0 "__sadc0" 1
 118  0005              #pragma debug struct_end
 118  0005              #pragma debug struct_end
 118  0005              #pragma debug union_end
 118  0005              #pragma debug union_end
 118  0005              #pragma debug variable 45 1 ___sadc1 "__sadc1" 1
 118  0005              #pragma debug struct_end
"File: ADC.c         Assembler  Version HGASM0202      Page 6

 118  0005              #pragma debug struct_end
 118  0005              #pragma debug union_end
 118  0005              #pragma debug union_end
 118  0005              #pragma debug variable 47 1 ___sadc2 "__sadc2" 1
 118  0005              #pragma debug struct_end
 118  0005              #pragma debug struct_end
 118  0005              #pragma debug union_end
 118  0005              #pragma debug union_end
 118  0005              #pragma debug variable 49 1 ___acerl "__acerl" 1
 118  0005              
 118  0005              ; 
 118  0005              ; Generated by holtek-gcc v3.19, Sat Jul 18 17:12:37 2020
 118  0005              ; Rebuild 115
 118  0005              ; end of file


        0 Errors, 0