"File: Sys_Init.C    Assembler  Version HGASM0202      Page 1


   1  0000              ; Generated by holtek-gcc v3.19, Sat Nov 21 20:23:40 2020
   2  0000              ; 
   3  0000              ; Configuration:
   4  0000              ;       without long instruction
   5  0000              ;       Single ROM, Multi-RAM
   6  0000              ;       bits_per_rom_unit:16
   7  0000              ;       with mp1
   8  0000              ;       with tbhp, address(0x9)
   9  0000              ;          Use tabrd-const
  10  0000              ;       
  11  0000              ;       
  12  0000              ;       
  13  0000              ; use 'tabrdc' instead of 'tabrd'
  14  0000              ;       
  15  0000              
  16  0000              #pragma translator "holtek-gcc 4.6.4" "3.19" "build 20130711"
  17  0000              ; Rebuild 718
  18  0000              
  19  0000              ir equ [2]
  20  0000              mp equ [3]
  21  0000              sbp equ [1]
  22  0000              acc equ [5]
  23  0000              bp equ [4]
  24  0000              tblp equ [7]
  25  0000              tbhp equ [9]
  26  0000              status equ [10]
  27  0000              c equ [10].0
  28  0000              ac equ [10].1
  29  0000              z equ [10].2
  30  0000              ov equ [10].3
  31  0000              intc equ [11]
  32  0000              
  33  0000              extern ra:byte
  34  0000              extern rb:byte
  35  0000              extern rc:byte
  36  0000              extern rd:byte
  37  0000              extern re:byte
  38  0000              extern rf:byte
  39  0000              extern rg:byte
  40  0000              extern rh:byte
  41  0000              extern _Crom2Prom:near
  42  0000              extern _Crom2PromNext:near
  43  0000              
  44  0000              RAMBANK 0 @HCCINIT, @HCCINIT0
  45  0000              
  46  0000              RAMBANK 0 @BITDATASEC, @BITDATASEC1
  47  0000              @HCCINIT	.section 'data'
  48  0000              @HCCINIT0	.section 'data'
  49  0000              @BITDATASEC	 .section 'data'
  50  0000              @BITDATASEC1	 .section 'data'
  51  0000              
  52  0000              #pragma debug scope 1 1
  53  0000              	extern __DELAY3:near
  54  0000              	extern __DELAYX3:near
  55  0000              	extern __DELAYX6:near
  56  0000              	extern __DELAYY5:near
  57  0000              	extern __DELAYY3:near
  58  0000              	extern _builtin_holtek_delay_2:byte
  59  0000              ___pb equ [37]
"File: Sys_Init.ASM  Assembler  Version HGASM0202      Page 2

  60  0000              public _Task_500ms
  61  0000              #pragma debug scope 2 1

  25  0000              #line 25 "C:\ChipsGarden\醇法\MK8000\MK8000-Power PCB\UART2EEPROMwith8bitsMCU\UART2EEPROMwith8bitsMCU\Sys_Init.C"
  25  0000              _Task_500ms .section 'code'
  25  0000              _Task_500ms proc
  29  0000              #line 29 "C:\ChipsGarden\醇法\MK8000\MK8000-Power PCB\UART2EEPROMwith8bitsMCU\UART2EEPROMwith8bitsMCU\Sys_Init.C"
  29  0000  3800     E  	snz _interrupt_flag[0].1
  29  0001  2800     R  	jmp _L1
  30  0002              #line 30 "C:\ChipsGarden\醇法\MK8000\MK8000-Power PCB\UART2EEPROMwith8bitsMCU\UART2EEPROMwith8bitsMCU\Sys_Init.C"
  30  0002  3400     E  	clr _interrupt_flag[0].1
  32  0003              #line 32 "C:\ChipsGarden\醇法\MK8000\MK8000-Power PCB\UART2EEPROMwith8bitsMCU\UART2EEPROMwith8bitsMCU\Sys_Init.C"
  32  0003  1480     R  	inc _count_2sec[0]
  33  0004              #line 33 "C:\ChipsGarden\醇法\MK8000\MK8000-Power PCB\UART2EEPROMwith8bitsMCU\UART2EEPROMwith8bitsMCU\Sys_Init.C"
  33  0004  0F03        	mov a,3
  33  0005  0200     R  	sub a,_count_2sec[0]
  33  0006  3C0A        	sz c
  33  0007  2800     R  	jmp _L1
  34  0008              #line 34 "C:\ChipsGarden\醇法\MK8000\MK8000-Power PCB\UART2EEPROMwith8bitsMCU\UART2EEPROMwith8bitsMCU\Sys_Init.C"
  34  0008  1F00     R  	clr _count_2sec[0]
  35  0009              #line 35 "C:\ChipsGarden\醇法\MK8000\MK8000-Power PCB\UART2EEPROMwith8bitsMCU\UART2EEPROMwith8bitsMCU\Sys_Init.C"
  35  0009  3C00     R  	sz _system_flag[0].1
  35  000A  2800     R  	jmp _L5
  37  000B              #line 37 "C:\ChipsGarden\醇法\MK8000\MK8000-Power PCB\UART2EEPROMwith8bitsMCU\UART2EEPROMwith8bitsMCU\Sys_Init.C"
  37  000B  3000     R  	set _system_flag[0].1
  38  000C              #line 38 "C:\ChipsGarden\醇法\MK8000\MK8000-Power PCB\UART2EEPROMwith8bitsMCU\UART2EEPROMwith8bitsMCU\Sys_Init.C"
  38  000C  3125        	set [37].2
  38  000D  2800     R  	jmp _L1
  38  000E              _L5:
  42  000E              #line 42 "C:\ChipsGarden\醇法\MK8000\MK8000-Power PCB\UART2EEPROMwith8bitsMCU\UART2EEPROMwith8bitsMCU\Sys_Init.C"
  42  000E  3400     R  	clr _system_flag[0].1
  43  000F              #line 43 "C:\ChipsGarden\醇法\MK8000\MK8000-Power PCB\UART2EEPROMwith8bitsMCU\UART2EEPROMwith8bitsMCU\Sys_Init.C"
  43  000F  3525        	clr [37].2
  43  0010              _L1:
  43  0010  0003        	ret
  43  0011              _Task_500ms endp
  43  0011              #line 43 "C:\ChipsGarden\醇法\MK8000\MK8000-Power PCB\UART2EEPROMwith8bitsMCU\UART2EEPROMwith8bitsMCU\Sys_Init.C"
  43  0011              #pragma debug scope 1 1
  43  0011              public _Key_Scan
  43  0011              #pragma debug scope 3 1
  52  0011              #line 52 "C:\ChipsGarden\醇法\MK8000\MK8000-Power PCB\UART2EEPROMwith8bitsMCU\UART2EEPROMwith8bitsMCU\Sys_Init.C"
  52  0000              _Key_Scan .section 'code'
  52  0000              _Key_Scan proc
  54  0000              #line 54 "C:\ChipsGarden\醇法\MK8000\MK8000-Power PCB\UART2EEPROMwith8bitsMCU\UART2EEPROMwith8bitsMCU\Sys_Init.C"
  54  0000              ;# 54 "C:\ChipsGarden\醇法\MK8000\MK8000-Power PCB\UART2EEPROMwith8bitsMCU\UART2EEPROMwith8bitsMCU\Sys_Init.C" 1
  54  0000  0000        	nop
  54  0001  0003        	ret
  54  0002              _Key_Scan endp
  54  0002              #line 54 "C:\ChipsGarden\醇法\MK8000\MK8000-Power PCB\UART2EEPROMwith8bitsMCU\UART2EEPROMwith8bitsMCU\Sys_Init.C"
  54  0002              #pragma debug scope 1 1
  54  0002              ___tbc equ [27]
  54  0002              ___intc1 equ [15]
  54  0002              ___intc2 equ [16]
  54  0002              ___tm0c0 equ [47]
  54  0002              ___tm0c1 equ [48]
  54  0002              ___tm0al equ [51]
  54  0002              ___tm0ah equ [52]
  54  0002              ___tm0rp equ [53]
  54  0002              ___tm1c0 equ [54]
  54  0002              ___tm1c1 equ [55]
"File: Sys_Init.C    Assembler  Version HGASM0202      Page 3

  54  0002              ___tm1al equ [58]
  54  0002              ___tm1ah equ [59]
  54  0002              ___tm1rpl equ [60]
  54  0002              ___tm1rph equ [61]
  54  0002              ___intc0 equ [14]
  54  0002              public _WDT_ResetInit
  54  0002              #pragma debug scope 4 1
  65  0002              #line 65 "C:\ChipsGarden\醇法\MK8000\MK8000-Power PCB\UART2EEPROMwith8bitsMCU\UART2EEPROMwith8bitsMCU\Sys_Init.C"
  65  0000              _WDT_ResetInit .section 'code'
  65  0000              _WDT_ResetInit proc
  66  0000              #line 66 "C:\ChipsGarden\醇法\MK8000\MK8000-Power PCB\UART2EEPROMwith8bitsMCU\UART2EEPROMwith8bitsMCU\Sys_Init.C"
  66  0000  2000     E  	call _Uart_Init
  70  0001              #line 70 "C:\ChipsGarden\醇法\MK8000\MK8000-Power PCB\UART2EEPROMwith8bitsMCU\UART2EEPROMwith8bitsMCU\Sys_Init.C"
  70  0001  0FA1        	mov a,161
  70  0002  009B        	mov [27],a
  70  0003  318F        	set [15].3
  70  0004  3010        	set [16].0
  73  0005              #line 73 "C:\ChipsGarden\醇法\MK8000\MK8000-Power PCB\UART2EEPROMwith8bitsMCU\UART2EEPROMwith8bitsMCU\Sys_Init.C"
  73  0005  0F40        	mov a,64
  73  0006  00AF        	mov [47],a
  74  0007              #line 74 "C:\ChipsGarden\醇法\MK8000\MK8000-Power PCB\UART2EEPROMwith8bitsMCU\UART2EEPROMwith8bitsMCU\Sys_Init.C"
  74  0007  1F30        	clr [48]
  75  0008              #line 75 "C:\ChipsGarden\醇法\MK8000\MK8000-Power PCB\UART2EEPROMwith8bitsMCU\UART2EEPROMwith8bitsMCU\Sys_Init.C"
  75  0008  0F48        	mov a,72
  75  0009  00B3        	mov [51],a
  76  000A              #line 76 "C:\ChipsGarden\醇法\MK8000\MK8000-Power PCB\UART2EEPROMwith8bitsMCU\UART2EEPROMwith8bitsMCU\Sys_Init.C"
  76  000A  0F01        	mov a,1
  76  000B  00B4        	mov [52],a
  77  000C              #line 77 "C:\ChipsGarden\醇法\MK8000\MK8000-Power PCB\UART2EEPROMwith8bitsMCU\UART2EEPROMwith8bitsMCU\Sys_Init.C"
  77  000C  1F35        	clr [53]
  79  000D              #line 79 "C:\ChipsGarden\醇法\MK8000\MK8000-Power PCB\UART2EEPROMwith8bitsMCU\UART2EEPROMwith8bitsMCU\Sys_Init.C"
  79  000D  0F40        	mov a,64
  79  000E  00B6        	mov [54],a
  80  000F              #line 80 "C:\ChipsGarden\醇法\MK8000\MK8000-Power PCB\UART2EEPROMwith8bitsMCU\UART2EEPROMwith8bitsMCU\Sys_Init.C"
  80  000F  1F37        	clr [55]
  81  0010              #line 81 "C:\ChipsGarden\醇法\MK8000\MK8000-Power PCB\UART2EEPROMwith8bitsMCU\UART2EEPROMwith8bitsMCU\Sys_Init.C"
  81  0010  0F48        	mov a,72
  81  0011  00BA        	mov [58],a
  82  0012              #line 82 "C:\ChipsGarden\醇法\MK8000\MK8000-Power PCB\UART2EEPROMwith8bitsMCU\UART2EEPROMwith8bitsMCU\Sys_Init.C"
  82  0012  0F01        	mov a,1
  82  0013  00BB        	mov [59],a
  83  0014              #line 83 "C:\ChipsGarden\醇法\MK8000\MK8000-Power PCB\UART2EEPROMwith8bitsMCU\UART2EEPROMwith8bitsMCU\Sys_Init.C"
  83  0014  1F3C        	clr [60]
  84  0015              #line 84 "C:\ChipsGarden\醇法\MK8000\MK8000-Power PCB\UART2EEPROMwith8bitsMCU\UART2EEPROMwith8bitsMCU\Sys_Init.C"
  84  0015  1F3D        	clr [61]
  87  0016              #line 87 "C:\ChipsGarden\醇法\MK8000\MK8000-Power PCB\UART2EEPROMwith8bitsMCU\UART2EEPROMwith8bitsMCU\Sys_Init.C"
  87  0016              ;# 87 "C:\ChipsGarden\醇法\MK8000\MK8000-Power PCB\UART2EEPROMwith8bitsMCU\UART2EEPROMwith8bitsMCU\Sys_Init.C" 1
  87  0016  0000        	nop
  91  0017              #line 91 "C:\ChipsGarden\醇法\MK8000\MK8000-Power PCB\UART2EEPROMwith8bitsMCU\UART2EEPROMwith8bitsMCU\Sys_Init.C"
  91  0017  300E        	set [14].0
  91  0018  0003        	ret
  91  0019              _WDT_ResetInit endp
  91  0019              #line 91 "C:\ChipsGarden\醇法\MK8000\MK8000-Power PCB\UART2EEPROMwith8bitsMCU\UART2EEPROMwith8bitsMCU\Sys_Init.C"
  91  0019              #pragma debug scope 1 1
  91  0019              public _ReadyToHalt
  91  0019              #pragma debug scope 5 1
 120  0019              #line 120 "C:\ChipsGarden\醇法\MK8000\MK8000-Power PCB\UART2EEPROMwith8bitsMCU\UART2EEPROMwith8bitsMCU\Sys_Init.C"
 120  0000              _ReadyToHalt .section 'code'
 120  0000              _ReadyToHalt proc
 122  0000              #line 122 "C:\ChipsGarden\醇法\MK8000\MK8000-Power PCB\UART2EEPROMwith8bitsMCU\UART2EEPROMwith8bitsMCU\Sys_Init.C"
"File: Sys_Init.C    Assembler  Version HGASM0202      Page 4

 122  0000  2000     E  	call _Uart_off
 123  0001              #line 123 "C:\ChipsGarden\醇法\MK8000\MK8000-Power PCB\UART2EEPROMwith8bitsMCU\UART2EEPROMwith8bitsMCU\Sys_Init.C"
 123  0001  35B6        	clr [54].3
 126  0002              #line 126 "C:\ChipsGarden\醇法\MK8000\MK8000-Power PCB\UART2EEPROMwith8bitsMCU\UART2EEPROMwith8bitsMCU\Sys_Init.C"
 126  0002              ;# 126 "C:\ChipsGarden\醇法\MK8000\MK8000-Power PCB\UART2EEPROMwith8bitsMCU\UART2EEPROMwith8bitsMCU\Sys_Init.C" 1
 126  0002  0002        	halt
 128  0003              #line 128 "C:\ChipsGarden\醇法\MK8000\MK8000-Power PCB\UART2EEPROMwith8bitsMCU\UART2EEPROMwith8bitsMCU\Sys_Init.C"
 128  0003  2000     E  	call _Uart_Init
 128  0004  0003        	ret
 128  0005              _ReadyToHalt endp
 128  0005              #line 128 "C:\ChipsGarden\醇法\MK8000\MK8000-Power PCB\UART2EEPROMwith8bitsMCU\UART2EEPROMwith8bitsMCU\Sys_Init.C"
 128  0005              #pragma debug scope 1 1
 128  0005              ___acerl equ [67]
 128  0005              ___scomc equ [63]
 128  0005              ___cpc equ [62]
 128  0005              ___pbc equ [38]
 128  0005              ___pbpu equ [39]
 128  0005              public _GPIO_Init
 128  0005              #pragma debug scope 6 1
 153  0005              #line 153 "C:\ChipsGarden\醇法\MK8000\MK8000-Power PCB\UART2EEPROMwith8bitsMCU\UART2EEPROMwith8bitsMCU\Sys_Init.C"
 153  0000              _GPIO_Init .section 'code'
 153  0000              _GPIO_Init proc
 154  0000              #line 154 "C:\ChipsGarden\醇法\MK8000\MK8000-Power PCB\UART2EEPROMwith8bitsMCU\UART2EEPROMwith8bitsMCU\Sys_Init.C"
 154  0000  0F01        	mov a,1
 154  0001  00C3        	mov [67],a
 155  0002              #line 155 "C:\ChipsGarden\醇法\MK8000\MK8000-Power PCB\UART2EEPROMwith8bitsMCU\UART2EEPROMwith8bitsMCU\Sys_Init.C"
 155  0002  1F3F        	clr [63]
 156  0003              #line 156 "C:\ChipsGarden\醇法\MK8000\MK8000-Power PCB\UART2EEPROMwith8bitsMCU\UART2EEPROMwith8bitsMCU\Sys_Init.C"
 156  0003  0F09        	mov a,9
 156  0004  00BE        	mov [62],a
 158  0005              #line 158 "C:\ChipsGarden\醇法\MK8000\MK8000-Power PCB\UART2EEPROMwith8bitsMCU\UART2EEPROMwith8bitsMCU\Sys_Init.C"
 158  0005  0FFB        	mov a,251
 158  0006  00A6        	mov [38],a
 159  0007              #line 159 "C:\ChipsGarden\醇法\MK8000\MK8000-Power PCB\UART2EEPROMwith8bitsMCU\UART2EEPROMwith8bitsMCU\Sys_Init.C"
 159  0007  1FA7        	set [39]
 160  0008              #line 160 "C:\ChipsGarden\醇法\MK8000\MK8000-Power PCB\UART2EEPROMwith8bitsMCU\UART2EEPROMwith8bitsMCU\Sys_Init.C"
 160  0008  1F25        	clr [37]
 160  0009  0003        	ret
 160  000A              _GPIO_Init endp
 160  000A              #line 160 "C:\ChipsGarden\醇法\MK8000\MK8000-Power PCB\UART2EEPROMwith8bitsMCU\UART2EEPROMwith8bitsMCU\Sys_Init.C"
 160  000A              #pragma debug scope 1 1
 160  000A              ___smod equ [11]
 160  000A              ___lvrc equ [29]
 160  000A              ___wdtc equ [26]
 160  000A              public _PowerOn_Init
 160  000A              #pragma debug scope 7 1
  99  000A              #line 99 "C:\ChipsGarden\醇法\MK8000\MK8000-Power PCB\UART2EEPROMwith8bitsMCU\UART2EEPROMwith8bitsMCU\Sys_Init.C"
  99  0000              _PowerOn_Init .section 'code'
  99  0000              _PowerOn_Init proc
 101  0000              #line 101 "C:\ChipsGarden\醇法\MK8000\MK8000-Power PCB\UART2EEPROMwith8bitsMCU\UART2EEPROMwith8bitsMCU\Sys_Init.C"
 101  0000  0FF3        	mov a,243
 101  0001  008B        	mov [11],a
 105  0002              #line 105 "C:\ChipsGarden\醇法\MK8000\MK8000-Power PCB\UART2EEPROMwith8bitsMCU\UART2EEPROMwith8bitsMCU\Sys_Init.C"
 105  0002  0F33        	mov a,51
 105  0003  009D        	mov [29],a
 109  0004              #line 109 "C:\ChipsGarden\醇法\MK8000\MK8000-Power PCB\UART2EEPROMwith8bitsMCU\UART2EEPROMwith8bitsMCU\Sys_Init.C"
 109  0004  2000     R  	call _GPIO_Init
 112  0005              #line 112 "C:\ChipsGarden\醇法\MK8000\MK8000-Power PCB\UART2EEPROMwith8bitsMCU\UART2EEPROMwith8bitsMCU\Sys_Init.C"
 112  0005  0F57        	mov a,87
 112  0006  009A        	mov [26],a
"File: Sys_Init.C    Assembler  Version HGASM0202      Page 5

 112  0007  0003        	ret
 112  0008              _PowerOn_Init endp
 112  0008              #line 112 "C:\ChipsGarden\醇法\MK8000\MK8000-Power PCB\UART2EEPROMwith8bitsMCU\UART2EEPROMwith8bitsMCU\Sys_Init.C"
 112  0008              #pragma debug scope 1 1
 112  0008              ___bp equ [4]
 112  0008              ___mp1 equ [3]
 112  0008              ___tblp equ [7]
 112  0008              ___iar1 equ [2]
 112  0008              public _Ram_Init
 112  0008              #pragma debug scope 8 1
 180  0008              #line 180 "C:\ChipsGarden\醇法\MK8000\MK8000-Power PCB\UART2EEPROMwith8bitsMCU\UART2EEPROMwith8bitsMCU\Sys_Init.C"
 180  0000              _Ram_Init .section 'code'
 180  0000              _Ram_Init proc
 181  0000              #line 181 "C:\ChipsGarden\醇法\MK8000\MK8000-Power PCB\UART2EEPROMwith8bitsMCU\UART2EEPROMwith8bitsMCU\Sys_Init.C"
 181  0000  0F01        	mov a,1
 181  0001  0084        	mov [4],a
 182  0002              #line 182 "C:\ChipsGarden\醇法\MK8000\MK8000-Power PCB\UART2EEPROMwith8bitsMCU\UART2EEPROMwith8bitsMCU\Sys_Init.C"
 182  0002  0FA0        	mov a,160
 182  0003  0083        	mov [3],a
 183  0004              #line 183 "C:\ChipsGarden\醇法\MK8000\MK8000-Power PCB\UART2EEPROMwith8bitsMCU\UART2EEPROMwith8bitsMCU\Sys_Init.C"
 183  0004  1F07        	clr [7]
 183  0005              _L13:
 183  0005              #line 183 "C:\ChipsGarden\醇法\MK8000\MK8000-Power PCB\UART2EEPROMwith8bitsMCU\UART2EEPROMwith8bitsMCU\Sys_Init.C"
 183  0005  0F5F        	mov a,95
 183  0006  0207        	sub a,[7]
 183  0007  380A        	snz c
 183  0008  2800     R  	jmp _L17
 185  0009              #line 185 "C:\ChipsGarden\醇法\MK8000\MK8000-Power PCB\UART2EEPROMwith8bitsMCU\UART2EEPROMwith8bitsMCU\Sys_Init.C"
 185  0009  1F02        	clr [2]
 186  000A              #line 186 "C:\ChipsGarden\醇法\MK8000\MK8000-Power PCB\UART2EEPROMwith8bitsMCU\UART2EEPROMwith8bitsMCU\Sys_Init.C"
 186  000A  1483        	inc [3]
 183  000B              #line 183 "C:\ChipsGarden\醇法\MK8000\MK8000-Power PCB\UART2EEPROMwith8bitsMCU\UART2EEPROMwith8bitsMCU\Sys_Init.C"
 183  000B  1487        	inc [7]
 183  000C  2800     R  	jmp _L13
 183  000D              _L17:
 188  000D              #line 188 "C:\ChipsGarden\醇法\MK8000\MK8000-Power PCB\UART2EEPROMwith8bitsMCU\UART2EEPROMwith8bitsMCU\Sys_Init.C"
 188  000D  1F04        	clr [4]
 190  000E              #line 190 "C:\ChipsGarden\醇法\MK8000\MK8000-Power PCB\UART2EEPROMwith8bitsMCU\UART2EEPROMwith8bitsMCU\Sys_Init.C"
 190  000E  0FA0        	mov a,160
 190  000F  0083        	mov [3],a
 192  0010              #line 192 "C:\ChipsGarden\醇法\MK8000\MK8000-Power PCB\UART2EEPROMwith8bitsMCU\UART2EEPROMwith8bitsMCU\Sys_Init.C"
 192  0010  1F07        	clr [7]
 192  0011  2800     R  	jmp _L15
 192  0012              _L16:
 194  0012              #line 194 "C:\ChipsGarden\醇法\MK8000\MK8000-Power PCB\UART2EEPROMwith8bitsMCU\UART2EEPROMwith8bitsMCU\Sys_Init.C"
 194  0012  1F02        	clr [2]
 195  0013              #line 195 "C:\ChipsGarden\醇法\MK8000\MK8000-Power PCB\UART2EEPROMwith8bitsMCU\UART2EEPROMwith8bitsMCU\Sys_Init.C"
 195  0013  1483        	inc [3]
 192  0014              #line 192 "C:\ChipsGarden\醇法\MK8000\MK8000-Power PCB\UART2EEPROMwith8bitsMCU\UART2EEPROMwith8bitsMCU\Sys_Init.C"
 192  0014  1487        	inc [7]
 192  0015              _L15:
 192  0015  0F5F        	mov a,95
 192  0016  0207        	sub a,[7]
 192  0017  3C0A        	sz c
 192  0018  2800     R  	jmp _L16
 192  0019  0003        	ret
 192  001A              _Ram_Init endp
 192  001A              #line 192 "C:\ChipsGarden\醇法\MK8000\MK8000-Power PCB\UART2EEPROMwith8bitsMCU\UART2EEPROMwith8bitsMCU\Sys_Init.C"
 192  001A              #pragma debug scope 1 1
  23  001A              #line 23 "C:\ChipsGarden\醇法\MK8000\MK8000-Power PCB\UART2EEPROMwith8bitsMCU\UART2EEPROMwith8bitsMCU\Sys_Init.C"
"File: Sys_Init.C    Assembler  Version HGASM0202      Page 6

  23  001A              public _system_flag
  23  0000              @HCCINIT0 .section 'data'
  23  0000              _system_flag	db 0
  23  0001              #pragma debug struct_end
  23  0001              #pragma debug struct_end
  23  0001              #pragma debug union_end
  23  0001              #pragma debug union_end
  23  0001              #pragma debug variable 43 1 _system_flag "system_flag"
  23  0001              
  23  0000              @HCCINIT .section 'data'
  22  0000              #line 22 "C:\ChipsGarden\醇法\MK8000\MK8000-Power PCB\UART2EEPROMwith8bitsMCU\UART2EEPROMwith8bitsMCU\Sys_Init.C"
  22  0000              public _count_2sec
  22  0001              @HCCINIT0 .section 'data'
  22  0001              _count_2sec	db 0
  22  0002              #pragma debug variable 8 1 _count_2sec "count_2sec"
  22  0002              
  22  0000              @HCCINIT .section 'data'
  22  0000              #pragma debug variable 8 1 ___mp1 "__mp1" 1
  22  0000              #pragma debug struct_end
  22  0000              #pragma debug struct_end
  22  0000              #pragma debug union_end
  22  0000              #pragma debug union_end
  22  0000              #pragma debug variable 45 1 ___bp "__bp" 1
  22  0000              #pragma debug variable 8 1 ___tblp "__tblp" 1
  22  0000              #pragma debug struct_end
  22  0000              #pragma debug struct_end
  22  0000              #pragma debug union_end
  22  0000              #pragma debug union_end
  22  0000              #pragma debug variable 47 1 ___smod "__smod" 1
  22  0000              #pragma debug struct_end
  22  0000              #pragma debug struct_end
  22  0000              #pragma debug union_end
  22  0000              #pragma debug union_end
  22  0000              #pragma debug variable 49 1 ___intc0 "__intc0" 1
  22  0000              #pragma debug struct_end
  22  0000              #pragma debug struct_end
  22  0000              #pragma debug union_end
  22  0000              #pragma debug union_end
  22  0000              #pragma debug variable 51 1 ___intc1 "__intc1" 1
  22  0000              #pragma debug struct_end
  22  0000              #pragma debug struct_end
  22  0000              #pragma debug union_end
  22  0000              #pragma debug union_end
  22  0000              #pragma debug variable 53 1 ___intc2 "__intc2" 1
  22  0000              #pragma debug struct_end
  22  0000              #pragma debug struct_end
  22  0000              #pragma debug union_end
  22  0000              #pragma debug union_end
  22  0000              #pragma debug variable 55 1 ___wdtc "__wdtc" 1
  22  0000              #pragma debug struct_end
  22  0000              #pragma debug struct_end
  22  0000              #pragma debug union_end
  22  0000              #pragma debug union_end
  22  0000              #pragma debug variable 57 1 ___tbc "__tbc" 1
  22  0000              #pragma debug struct_end
  22  0000              #pragma debug struct_end
  22  0000              #pragma debug union_end
  22  0000              #pragma debug union_end
  22  0000              #pragma debug variable 59 1 ___lvrc "__lvrc" 1
  22  0000              #pragma debug struct_end
"File: Sys_Init.C    Assembler  Version HGASM0202      Page 7

  22  0000              #pragma debug struct_end
  22  0000              #pragma debug union_end
  22  0000              #pragma debug union_end
  22  0000              #pragma debug variable 61 1 ___pb "__pb" 1
  22  0000              #pragma debug struct_end
  22  0000              #pragma debug struct_end
  22  0000              #pragma debug union_end
  22  0000              #pragma debug union_end
  22  0000              #pragma debug variable 63 1 ___pbc "__pbc" 1
  22  0000              #pragma debug struct_end
  22  0000              #pragma debug struct_end
  22  0000              #pragma debug union_end
  22  0000              #pragma debug union_end
  22  0000              #pragma debug variable 65 1 ___pbpu "__pbpu" 1
  22  0000              #pragma debug struct_end
  22  0000              #pragma debug struct_end
  22  0000              #pragma debug union_end
  22  0000              #pragma debug union_end
  22  0000              #pragma debug variable 67 1 ___tm0c0 "__tm0c0" 1
  22  0000              #pragma debug struct_end
  22  0000              #pragma debug struct_end
  22  0000              #pragma debug union_end
  22  0000              #pragma debug union_end
  22  0000              #pragma debug variable 69 1 ___tm0c1 "__tm0c1" 1
  22  0000              #pragma debug variable 8 1 ___tm0al "__tm0al" 1
  22  0000              #pragma debug variable 8 1 ___tm0ah "__tm0ah" 1
  22  0000              #pragma debug struct_end
  22  0000              #pragma debug struct_end
  22  0000              #pragma debug union_end
  22  0000              #pragma debug union_end
  22  0000              #pragma debug variable 71 1 ___tm0rp "__tm0rp" 1
  22  0000              #pragma debug struct_end
  22  0000              #pragma debug struct_end
  22  0000              #pragma debug union_end
  22  0000              #pragma debug union_end
  22  0000              #pragma debug variable 73 1 ___tm1c0 "__tm1c0" 1
  22  0000              #pragma debug struct_end
  22  0000              #pragma debug struct_end
  22  0000              #pragma debug union_end
  22  0000              #pragma debug union_end
  22  0000              #pragma debug variable 75 1 ___tm1c1 "__tm1c1" 1
  22  0000              #pragma debug variable 8 1 ___tm1al "__tm1al" 1
  22  0000              #pragma debug variable 8 1 ___tm1ah "__tm1ah" 1
  22  0000              #pragma debug variable 8 1 ___tm1rpl "__tm1rpl" 1
  22  0000              #pragma debug variable 8 1 ___tm1rph "__tm1rph" 1
  22  0000              #pragma debug struct_end
  22  0000              #pragma debug struct_end
  22  0000              #pragma debug union_end
  22  0000              #pragma debug union_end
  22  0000              #pragma debug variable 77 1 ___cpc "__cpc" 1
  22  0000              #pragma debug struct_end
  22  0000              #pragma debug struct_end
  22  0000              #pragma debug union_end
  22  0000              #pragma debug union_end
  22  0000              #pragma debug variable 79 1 ___scomc "__scomc" 1
  22  0000              #pragma debug struct_end
  22  0000              #pragma debug struct_end
  22  0000              #pragma debug union_end
  22  0000              #pragma debug union_end
  22  0000              #pragma debug variable 81 1 ___acerl "__acerl" 1
"File: Sys_Init.C    Assembler  Version HGASM0202      Page 8

  22  0000              #pragma debug variable 8 1 ___iar1 "__iar1" 1
  22  0000              
  22  0000              ; output external variables
  22  0000              extern _interrupt_flag:byte
  22  0000              extern _Uart_Init:near
  22  0000              extern _Uart_off:near
  22  0000              
  22  0000              ; 
  22  0000              ; Generated by holtek-gcc v3.19, Sat Nov 21 20:23:41 2020
  22  0000              ; Rebuild 718
  22  0000              ; end of file


        0 Errors, 0