"File: Sys_Init.C    Assembler  Version HGASM0202      Page 1


   1  0000              ; Generated by holtek-gcc v3.19, Sat Jul 18 18:27:05 2020
   2  0000              ; 
   3  0000              ; Configuration:
   4  0000              ;       without long instruction
   5  0000              ;       Single ROM, Multi-RAM
   6  0000              ;       bits_per_rom_unit:16
   7  0000              ;       with mp1
   8  0000              ;       with tbhp, address(0x9)
   9  0000              ;          Use tabrd-const
  10  0000              ;       
  11  0000              ;       
  12  0000              ;       
  13  0000              ; use 'tabrdc' instead of 'tabrd'
  14  0000              ;       
  15  0000              
  16  0000              #pragma translator "holtek-gcc 4.6.4" "3.19" "build 20130711"
  17  0000              ; Rebuild 115
  18  0000              
  19  0000              ir equ [2]
  20  0000              mp equ [3]
  21  0000              sbp equ [1]
  22  0000              acc equ [5]
  23  0000              bp equ [4]
  24  0000              tblp equ [7]
  25  0000              tbhp equ [9]
  26  0000              status equ [10]
  27  0000              c equ [10].0
  28  0000              ac equ [10].1
  29  0000              z equ [10].2
  30  0000              ov equ [10].3
  31  0000              intc equ [11]
  32  0000              
  33  0000              extern ra:byte
  34  0000              extern rb:byte
  35  0000              extern rc:byte
  36  0000              extern rd:byte
  37  0000              extern re:byte
  38  0000              extern rf:byte
  39  0000              extern rg:byte
  40  0000              extern rh:byte
  41  0000              extern _Crom2Prom:near
  42  0000              extern _Crom2PromNext:near
  43  0000              
  44  0000              RAMBANK 0 @HCCINIT, @HCCINIT0
  45  0000              
  46  0000              RAMBANK 0 @BITDATASEC, @BITDATASEC1
  47  0000              @HCCINIT	.section 'data'
  48  0000              @HCCINIT0	.section 'data'
  49  0000              @BITDATASEC	 .section 'data'
  50  0000              @BITDATASEC1	 .section 'data'
  51  0000              
  52  0000              #pragma debug scope 1 1
  53  0000              	extern __DELAY3:near
  54  0000              	extern __DELAYX3:near
  55  0000              	extern __DELAYX6:near
  56  0000              	extern __DELAYY5:near
  57  0000              	extern __DELAYY3:near
  58  0000              	extern _builtin_holtek_delay_2:byte
  59  0000              ___pb equ [37]
"File: Sys_Init.ASM  Assembler  Version HGASM0202      Page 2

  60  0000              public _Task_500ms
  61  0000              #pragma debug scope 2 1

  25  0000              #line 25 "C:\ChipsGarden\醇法\MK8002D\UART2EEPROMwith8bitsMCU\UART2EEPROMwith8bitsMCU\Sys_Init.C"
  25  0000              _Task_500ms .section 'code'
  25  0000              _Task_500ms proc
  26  0000              #line 26 "C:\ChipsGarden\醇法\MK8002D\UART2EEPROMwith8bitsMCU\UART2EEPROMwith8bitsMCU\Sys_Init.C"
  26  0000  3800     E  	snz _interrupt_flag[0].0
  26  0001  2800     R  	jmp _L1
  27  0002              #line 27 "C:\ChipsGarden\醇法\MK8002D\UART2EEPROMwith8bitsMCU\UART2EEPROMwith8bitsMCU\Sys_Init.C"
  27  0002  1480     R  	inc _count_2sec[0]
  28  0003              #line 28 "C:\ChipsGarden\醇法\MK8002D\UART2EEPROMwith8bitsMCU\UART2EEPROMwith8bitsMCU\Sys_Init.C"
  28  0003  0F03        	mov a,3
  28  0004  0200     R  	sub a,_count_2sec[0]
  28  0005  3C0A        	sz c
  28  0006  2800     R  	jmp _L1
  29  0007              #line 29 "C:\ChipsGarden\醇法\MK8002D\UART2EEPROMwith8bitsMCU\UART2EEPROMwith8bitsMCU\Sys_Init.C"
  29  0007  1F00     R  	clr _count_2sec[0]
  30  0008              #line 30 "C:\ChipsGarden\醇法\MK8002D\UART2EEPROMwith8bitsMCU\UART2EEPROMwith8bitsMCU\Sys_Init.C"
  30  0008  3C00     R  	sz _system_flag[0].1
  30  0009  2800     R  	jmp _L5
  32  000A              #line 32 "C:\ChipsGarden\醇法\MK8002D\UART2EEPROMwith8bitsMCU\UART2EEPROMwith8bitsMCU\Sys_Init.C"
  32  000A  3000     R  	set _system_flag[0].1
  33  000B              #line 33 "C:\ChipsGarden\醇法\MK8002D\UART2EEPROMwith8bitsMCU\UART2EEPROMwith8bitsMCU\Sys_Init.C"
  33  000B  3125        	set [37].2
  33  000C  2800     R  	jmp _L1
  33  000D              _L5:
  37  000D              #line 37 "C:\ChipsGarden\醇法\MK8002D\UART2EEPROMwith8bitsMCU\UART2EEPROMwith8bitsMCU\Sys_Init.C"
  37  000D  3400     R  	clr _system_flag[0].1
  38  000E              #line 38 "C:\ChipsGarden\醇法\MK8002D\UART2EEPROMwith8bitsMCU\UART2EEPROMwith8bitsMCU\Sys_Init.C"
  38  000E  3525        	clr [37].2
  38  000F              _L1:
  38  000F  0003        	ret
  38  0010              _Task_500ms endp
  38  0010              #line 38 "C:\ChipsGarden\醇法\MK8002D\UART2EEPROMwith8bitsMCU\UART2EEPROMwith8bitsMCU\Sys_Init.C"
  38  0010              #pragma debug scope 1 1
  38  0010              public _Key_Scan
  38  0010              #pragma debug scope 3 1
  47  0010              #line 47 "C:\ChipsGarden\醇法\MK8002D\UART2EEPROMwith8bitsMCU\UART2EEPROMwith8bitsMCU\Sys_Init.C"
  47  0000              _Key_Scan .section 'code'
  47  0000              _Key_Scan proc
  49  0000              #line 49 "C:\ChipsGarden\醇法\MK8002D\UART2EEPROMwith8bitsMCU\UART2EEPROMwith8bitsMCU\Sys_Init.C"
  49  0000              ;# 49 "C:\ChipsGarden\醇法\MK8002D\UART2EEPROMwith8bitsMCU\UART2EEPROMwith8bitsMCU\Sys_Init.C" 1
  49  0000  0000        	nop
  49  0001  0003        	ret
  49  0002              _Key_Scan endp
  49  0002              #line 49 "C:\ChipsGarden\醇法\MK8002D\UART2EEPROMwith8bitsMCU\UART2EEPROMwith8bitsMCU\Sys_Init.C"
  49  0002              #pragma debug scope 1 1
  49  0002              ___tm1c0 equ [54]
  49  0002              public _ReadyToHalt
  49  0002              #pragma debug scope 4 1
 117  0002              #line 117 "C:\ChipsGarden\醇法\MK8002D\UART2EEPROMwith8bitsMCU\UART2EEPROMwith8bitsMCU\Sys_Init.C"
 117  0000              _ReadyToHalt .section 'code'
 117  0000              _ReadyToHalt proc
 125  0000              #line 125 "C:\ChipsGarden\醇法\MK8002D\UART2EEPROMwith8bitsMCU\UART2EEPROMwith8bitsMCU\Sys_Init.C"
 125  0000  2000     E  	call _Uart_off
 126  0001              #line 126 "C:\ChipsGarden\醇法\MK8002D\UART2EEPROMwith8bitsMCU\UART2EEPROMwith8bitsMCU\Sys_Init.C"
 126  0001  35B6        	clr [54].3
 129  0002              #line 129 "C:\ChipsGarden\醇法\MK8002D\UART2EEPROMwith8bitsMCU\UART2EEPROMwith8bitsMCU\Sys_Init.C"
 129  0002              ;# 129 "C:\ChipsGarden\醇法\MK8002D\UART2EEPROMwith8bitsMCU\UART2EEPROMwith8bitsMCU\Sys_Init.C" 1
"File: Sys_Init.C    Assembler  Version HGASM0202      Page 3

 129  0002  0002        	halt
 131  0003              #line 131 "C:\ChipsGarden\醇法\MK8002D\UART2EEPROMwith8bitsMCU\UART2EEPROMwith8bitsMCU\Sys_Init.C"
 131  0003  2000     E  	call _Uart_Init
 131  0004  0003        	ret
 131  0005              _ReadyToHalt endp
 131  0005              #line 131 "C:\ChipsGarden\醇法\MK8002D\UART2EEPROMwith8bitsMCU\UART2EEPROMwith8bitsMCU\Sys_Init.C"
 131  0005              #pragma debug scope 1 1
 131  0005              ___pbc equ [38]
 131  0005              ___pbpu equ [39]
 131  0005              public _GPIO_Init
 131  0005              #pragma debug scope 5 1
 156  0005              #line 156 "C:\ChipsGarden\醇法\MK8002D\UART2EEPROMwith8bitsMCU\UART2EEPROMwith8bitsMCU\Sys_Init.C"
 156  0000              _GPIO_Init .section 'code'
 156  0000              _GPIO_Init proc
 163  0000              #line 163 "C:\ChipsGarden\醇法\MK8002D\UART2EEPROMwith8bitsMCU\UART2EEPROMwith8bitsMCU\Sys_Init.C"
 163  0000  0FFB        	mov a,251
 163  0001  00A6        	mov [38],a
 164  0002              #line 164 "C:\ChipsGarden\醇法\MK8002D\UART2EEPROMwith8bitsMCU\UART2EEPROMwith8bitsMCU\Sys_Init.C"
 164  0002  1FA7        	set [39]
 165  0003              #line 165 "C:\ChipsGarden\醇法\MK8002D\UART2EEPROMwith8bitsMCU\UART2EEPROMwith8bitsMCU\Sys_Init.C"
 165  0003  1F25        	clr [37]
 165  0004  0003        	ret
 165  0005              _GPIO_Init endp
 165  0005              #line 165 "C:\ChipsGarden\醇法\MK8002D\UART2EEPROMwith8bitsMCU\UART2EEPROMwith8bitsMCU\Sys_Init.C"
 165  0005              #pragma debug scope 1 1
 165  0005              ___tbc equ [27]
 165  0005              ___intc1 equ [15]
 165  0005              ___tm0c0 equ [47]
 165  0005              ___tm0c1 equ [48]
 165  0005              ___tm0al equ [51]
 165  0005              ___tm0ah equ [52]
 165  0005              ___tm0rp equ [53]
 165  0005              ___tm1c1 equ [55]
 165  0005              ___tm1al equ [58]
 165  0005              ___tm1ah equ [59]
 165  0005              ___tm1rpl equ [60]
 165  0005              ___tm1rph equ [61]
 165  0005              ___intc0 equ [14]
 165  0005              public _WDT_ResetInit
 165  0005              #pragma debug scope 6 1
  60  0005              #line 60 "C:\ChipsGarden\醇法\MK8002D\UART2EEPROMwith8bitsMCU\UART2EEPROMwith8bitsMCU\Sys_Init.C"
  60  0000              _WDT_ResetInit .section 'code'
  60  0000              _WDT_ResetInit proc
  61  0000              #line 61 "C:\ChipsGarden\醇法\MK8002D\UART2EEPROMwith8bitsMCU\UART2EEPROMwith8bitsMCU\Sys_Init.C"
  61  0000  2000     R  	call _GPIO_Init
  62  0001              #line 62 "C:\ChipsGarden\醇法\MK8002D\UART2EEPROMwith8bitsMCU\UART2EEPROMwith8bitsMCU\Sys_Init.C"
  62  0001  2000     E  	call _Uart_Init
  66  0002              #line 66 "C:\ChipsGarden\醇法\MK8002D\UART2EEPROMwith8bitsMCU\UART2EEPROMwith8bitsMCU\Sys_Init.C"
  66  0002  0FB7        	mov a,183
  66  0003  009B        	mov [27],a
  66  0004  318F        	set [15].3
  69  0005              #line 69 "C:\ChipsGarden\醇法\MK8002D\UART2EEPROMwith8bitsMCU\UART2EEPROMwith8bitsMCU\Sys_Init.C"
  69  0005  0F40        	mov a,64
  69  0006  00AF        	mov [47],a
  70  0007              #line 70 "C:\ChipsGarden\醇法\MK8002D\UART2EEPROMwith8bitsMCU\UART2EEPROMwith8bitsMCU\Sys_Init.C"
  70  0007  1F30        	clr [48]
  71  0008              #line 71 "C:\ChipsGarden\醇法\MK8002D\UART2EEPROMwith8bitsMCU\UART2EEPROMwith8bitsMCU\Sys_Init.C"
  71  0008  0F48        	mov a,72
  71  0009  00B3        	mov [51],a
  72  000A              #line 72 "C:\ChipsGarden\醇法\MK8002D\UART2EEPROMwith8bitsMCU\UART2EEPROMwith8bitsMCU\Sys_Init.C"
"File: Sys_Init.C    Assembler  Version HGASM0202      Page 4

  72  000A  0F01        	mov a,1
  72  000B  00B4        	mov [52],a
  73  000C              #line 73 "C:\ChipsGarden\醇法\MK8002D\UART2EEPROMwith8bitsMCU\UART2EEPROMwith8bitsMCU\Sys_Init.C"
  73  000C  1F35        	clr [53]
  75  000D              #line 75 "C:\ChipsGarden\醇法\MK8002D\UART2EEPROMwith8bitsMCU\UART2EEPROMwith8bitsMCU\Sys_Init.C"
  75  000D  0F40        	mov a,64
  75  000E  00B6        	mov [54],a
  76  000F              #line 76 "C:\ChipsGarden\醇法\MK8002D\UART2EEPROMwith8bitsMCU\UART2EEPROMwith8bitsMCU\Sys_Init.C"
  76  000F  1F37        	clr [55]
  77  0010              #line 77 "C:\ChipsGarden\醇法\MK8002D\UART2EEPROMwith8bitsMCU\UART2EEPROMwith8bitsMCU\Sys_Init.C"
  77  0010  0F48        	mov a,72
  77  0011  00BA        	mov [58],a
  78  0012              #line 78 "C:\ChipsGarden\醇法\MK8002D\UART2EEPROMwith8bitsMCU\UART2EEPROMwith8bitsMCU\Sys_Init.C"
  78  0012  0F01        	mov a,1
  78  0013  00BB        	mov [59],a
  79  0014              #line 79 "C:\ChipsGarden\醇法\MK8002D\UART2EEPROMwith8bitsMCU\UART2EEPROMwith8bitsMCU\Sys_Init.C"
  79  0014  1F3C        	clr [60]
  80  0015              #line 80 "C:\ChipsGarden\醇法\MK8002D\UART2EEPROMwith8bitsMCU\UART2EEPROMwith8bitsMCU\Sys_Init.C"
  80  0015  1F3D        	clr [61]
  83  0016              #line 83 "C:\ChipsGarden\醇法\MK8002D\UART2EEPROMwith8bitsMCU\UART2EEPROMwith8bitsMCU\Sys_Init.C"
  83  0016              ;# 83 "C:\ChipsGarden\醇法\MK8002D\UART2EEPROMwith8bitsMCU\UART2EEPROMwith8bitsMCU\Sys_Init.C" 1
  83  0016  0000        	nop
  87  0017              #line 87 "C:\ChipsGarden\醇法\MK8002D\UART2EEPROMwith8bitsMCU\UART2EEPROMwith8bitsMCU\Sys_Init.C"
  87  0017  300E        	set [14].0
  87  0018  0003        	ret
  87  0019              _WDT_ResetInit endp
  87  0019              #line 87 "C:\ChipsGarden\醇法\MK8002D\UART2EEPROMwith8bitsMCU\UART2EEPROMwith8bitsMCU\Sys_Init.C"
  87  0019              #pragma debug scope 1 1
  87  0019              ___smod equ [11]
  87  0019              ___lvrc equ [29]
  87  0019              ___wdtc equ [26]
  87  0019              public _PowerOn_Init
  87  0019              #pragma debug scope 7 1
  95  0019              #line 95 "C:\ChipsGarden\醇法\MK8002D\UART2EEPROMwith8bitsMCU\UART2EEPROMwith8bitsMCU\Sys_Init.C"
  95  0000              _PowerOn_Init .section 'code'
  95  0000              _PowerOn_Init proc
  96  0000              #line 96 "C:\ChipsGarden\醇法\MK8002D\UART2EEPROMwith8bitsMCU\UART2EEPROMwith8bitsMCU\Sys_Init.C"
  96  0000  338B        	set [11].7
  96  0001  330B        	set [11].6
  96  0002  328B        	set [11].5
  96  0003  320B        	set [11].4
  96  0004  308B        	set [11].1
  96  0005  300B        	set [11].0
 100  0006              #line 100 "C:\ChipsGarden\醇法\MK8002D\UART2EEPROMwith8bitsMCU\UART2EEPROMwith8bitsMCU\Sys_Init.C"
 100  0006  0F33        	mov a,51
 100  0007  009D        	mov [29],a
 104  0008              #line 104 "C:\ChipsGarden\醇法\MK8002D\UART2EEPROMwith8bitsMCU\UART2EEPROMwith8bitsMCU\Sys_Init.C"
 104  0008  0F57        	mov a,87
 104  0009  009A        	mov [26],a
 107  000A              #line 107 "C:\ChipsGarden\醇法\MK8002D\UART2EEPROMwith8bitsMCU\UART2EEPROMwith8bitsMCU\Sys_Init.C"
 107  000A  2000     R  	call _WDT_ResetInit
 107  000B  0003        	ret
 107  000C              _PowerOn_Init endp
 107  000C              #line 107 "C:\ChipsGarden\醇法\MK8002D\UART2EEPROMwith8bitsMCU\UART2EEPROMwith8bitsMCU\Sys_Init.C"
 107  000C              #pragma debug scope 1 1
 107  000C              ___bp equ [4]
 107  000C              ___mp1 equ [3]
 107  000C              ___tblp equ [7]
 107  000C              ___iar1 equ [2]
 107  000C              public _Ram_Init
"File: Sys_Init.C    Assembler  Version HGASM0202      Page 5

 107  000C              #pragma debug scope 8 1
 185  000C              #line 185 "C:\ChipsGarden\醇法\MK8002D\UART2EEPROMwith8bitsMCU\UART2EEPROMwith8bitsMCU\Sys_Init.C"
 185  0000              _Ram_Init .section 'code'
 185  0000              _Ram_Init proc
 186  0000              #line 186 "C:\ChipsGarden\醇法\MK8002D\UART2EEPROMwith8bitsMCU\UART2EEPROMwith8bitsMCU\Sys_Init.C"
 186  0000  0F01        	mov a,1
 186  0001  0084        	mov [4],a
 187  0002              #line 187 "C:\ChipsGarden\醇法\MK8002D\UART2EEPROMwith8bitsMCU\UART2EEPROMwith8bitsMCU\Sys_Init.C"
 187  0002  0FA0        	mov a,160
 187  0003  0083        	mov [3],a
 188  0004              #line 188 "C:\ChipsGarden\醇法\MK8002D\UART2EEPROMwith8bitsMCU\UART2EEPROMwith8bitsMCU\Sys_Init.C"
 188  0004  1F07        	clr [7]
 188  0005              _L13:
 188  0005              #line 188 "C:\ChipsGarden\醇法\MK8002D\UART2EEPROMwith8bitsMCU\UART2EEPROMwith8bitsMCU\Sys_Init.C"
 188  0005  0F5F        	mov a,95
 188  0006  0207        	sub a,[7]
 188  0007  380A        	snz c
 188  0008  2800     R  	jmp _L17
 190  0009              #line 190 "C:\ChipsGarden\醇法\MK8002D\UART2EEPROMwith8bitsMCU\UART2EEPROMwith8bitsMCU\Sys_Init.C"
 190  0009  1F02        	clr [2]
 191  000A              #line 191 "C:\ChipsGarden\醇法\MK8002D\UART2EEPROMwith8bitsMCU\UART2EEPROMwith8bitsMCU\Sys_Init.C"
 191  000A  1483        	inc [3]
 188  000B              #line 188 "C:\ChipsGarden\醇法\MK8002D\UART2EEPROMwith8bitsMCU\UART2EEPROMwith8bitsMCU\Sys_Init.C"
 188  000B  1487        	inc [7]
 188  000C  2800     R  	jmp _L13
 188  000D              _L17:
 193  000D              #line 193 "C:\ChipsGarden\醇法\MK8002D\UART2EEPROMwith8bitsMCU\UART2EEPROMwith8bitsMCU\Sys_Init.C"
 193  000D  1F04        	clr [4]
 195  000E              #line 195 "C:\ChipsGarden\醇法\MK8002D\UART2EEPROMwith8bitsMCU\UART2EEPROMwith8bitsMCU\Sys_Init.C"
 195  000E  0FA0        	mov a,160
 195  000F  0083        	mov [3],a
 197  0010              #line 197 "C:\ChipsGarden\醇法\MK8002D\UART2EEPROMwith8bitsMCU\UART2EEPROMwith8bitsMCU\Sys_Init.C"
 197  0010  1F07        	clr [7]
 197  0011  2800     R  	jmp _L15
 197  0012              _L16:
 199  0012              #line 199 "C:\ChipsGarden\醇法\MK8002D\UART2EEPROMwith8bitsMCU\UART2EEPROMwith8bitsMCU\Sys_Init.C"
 199  0012  1F02        	clr [2]
 200  0013              #line 200 "C:\ChipsGarden\醇法\MK8002D\UART2EEPROMwith8bitsMCU\UART2EEPROMwith8bitsMCU\Sys_Init.C"
 200  0013  1483        	inc [3]
 197  0014              #line 197 "C:\ChipsGarden\醇法\MK8002D\UART2EEPROMwith8bitsMCU\UART2EEPROMwith8bitsMCU\Sys_Init.C"
 197  0014  1487        	inc [7]
 197  0015              _L15:
 197  0015  0F5F        	mov a,95
 197  0016  0207        	sub a,[7]
 197  0017  3C0A        	sz c
 197  0018  2800     R  	jmp _L16
 197  0019  0003        	ret
 197  001A              _Ram_Init endp
 197  001A              #line 197 "C:\ChipsGarden\醇法\MK8002D\UART2EEPROMwith8bitsMCU\UART2EEPROMwith8bitsMCU\Sys_Init.C"
 197  001A              #pragma debug scope 1 1
  23  001A              #line 23 "C:\ChipsGarden\醇法\MK8002D\UART2EEPROMwith8bitsMCU\UART2EEPROMwith8bitsMCU\Sys_Init.C"
  23  001A              public _system_flag
  23  0000              @HCCINIT0 .section 'data'
  23  0000              _system_flag	db 0
  23  0001              #pragma debug struct_end
  23  0001              #pragma debug struct_end
  23  0001              #pragma debug union_end
  23  0001              #pragma debug union_end
  23  0001              #pragma debug variable 43 1 _system_flag "system_flag"
  23  0001              
"File: Sys_Init.C    Assembler  Version HGASM0202      Page 6

  23  0000              @HCCINIT .section 'data'
  22  0000              #line 22 "C:\ChipsGarden\醇法\MK8002D\UART2EEPROMwith8bitsMCU\UART2EEPROMwith8bitsMCU\Sys_Init.C"
  22  0000              public _count_2sec
  22  0001              @HCCINIT0 .section 'data'
  22  0001              _count_2sec	db 0
  22  0002              #pragma debug variable 8 1 _count_2sec "count_2sec"
  22  0002              
  22  0000              @HCCINIT .section 'data'
  22  0000              #pragma debug variable 8 1 ___mp1 "__mp1" 1
  22  0000              #pragma debug struct_end
  22  0000              #pragma debug struct_end
  22  0000              #pragma debug union_end
  22  0000              #pragma debug union_end
  22  0000              #pragma debug variable 45 1 ___bp "__bp" 1
  22  0000              #pragma debug variable 8 1 ___tblp "__tblp" 1
  22  0000              #pragma debug struct_end
  22  0000              #pragma debug struct_end
  22  0000              #pragma debug union_end
  22  0000              #pragma debug union_end
  22  0000              #pragma debug variable 47 1 ___smod "__smod" 1
  22  0000              #pragma debug struct_end
  22  0000              #pragma debug struct_end
  22  0000              #pragma debug union_end
  22  0000              #pragma debug union_end
  22  0000              #pragma debug variable 49 1 ___intc0 "__intc0" 1
  22  0000              #pragma debug struct_end
  22  0000              #pragma debug struct_end
  22  0000              #pragma debug union_end
  22  0000              #pragma debug union_end
  22  0000              #pragma debug variable 51 1 ___intc1 "__intc1" 1
  22  0000              #pragma debug struct_end
  22  0000              #pragma debug struct_end
  22  0000              #pragma debug union_end
  22  0000              #pragma debug union_end
  22  0000              #pragma debug variable 53 1 ___wdtc "__wdtc" 1
  22  0000              #pragma debug struct_end
  22  0000              #pragma debug struct_end
  22  0000              #pragma debug union_end
  22  0000              #pragma debug union_end
  22  0000              #pragma debug variable 55 1 ___tbc "__tbc" 1
  22  0000              #pragma debug struct_end
  22  0000              #pragma debug struct_end
  22  0000              #pragma debug union_end
  22  0000              #pragma debug union_end
  22  0000              #pragma debug variable 57 1 ___lvrc "__lvrc" 1
  22  0000              #pragma debug struct_end
  22  0000              #pragma debug struct_end
  22  0000              #pragma debug union_end
  22  0000              #pragma debug union_end
  22  0000              #pragma debug variable 59 1 ___pb "__pb" 1
  22  0000              #pragma debug struct_end
  22  0000              #pragma debug struct_end
  22  0000              #pragma debug union_end
  22  0000              #pragma debug union_end
  22  0000              #pragma debug variable 61 1 ___pbc "__pbc" 1
  22  0000              #pragma debug struct_end
  22  0000              #pragma debug struct_end
  22  0000              #pragma debug union_end
  22  0000              #pragma debug union_end
  22  0000              #pragma debug variable 63 1 ___pbpu "__pbpu" 1
"File: Sys_Init.C    Assembler  Version HGASM0202      Page 7

  22  0000              #pragma debug struct_end
  22  0000              #pragma debug struct_end
  22  0000              #pragma debug union_end
  22  0000              #pragma debug union_end
  22  0000              #pragma debug variable 65 1 ___tm0c0 "__tm0c0" 1
  22  0000              #pragma debug struct_end
  22  0000              #pragma debug struct_end
  22  0000              #pragma debug union_end
  22  0000              #pragma debug union_end
  22  0000              #pragma debug variable 67 1 ___tm0c1 "__tm0c1" 1
  22  0000              #pragma debug variable 8 1 ___tm0al "__tm0al" 1
  22  0000              #pragma debug variable 8 1 ___tm0ah "__tm0ah" 1
  22  0000              #pragma debug struct_end
  22  0000              #pragma debug struct_end
  22  0000              #pragma debug union_end
  22  0000              #pragma debug union_end
  22  0000              #pragma debug variable 69 1 ___tm0rp "__tm0rp" 1
  22  0000              #pragma debug struct_end
  22  0000              #pragma debug struct_end
  22  0000              #pragma debug union_end
  22  0000              #pragma debug union_end
  22  0000              #pragma debug variable 71 1 ___tm1c0 "__tm1c0" 1
  22  0000              #pragma debug struct_end
  22  0000              #pragma debug struct_end
  22  0000              #pragma debug union_end
  22  0000              #pragma debug union_end
  22  0000              #pragma debug variable 73 1 ___tm1c1 "__tm1c1" 1
  22  0000              #pragma debug variable 8 1 ___tm1al "__tm1al" 1
  22  0000              #pragma debug variable 8 1 ___tm1ah "__tm1ah" 1
  22  0000              #pragma debug variable 8 1 ___tm1rpl "__tm1rpl" 1
  22  0000              #pragma debug variable 8 1 ___tm1rph "__tm1rph" 1
  22  0000              #pragma debug variable 8 1 ___iar1 "__iar1" 1
  22  0000              
  22  0000              ; output external variables
  22  0000              extern _interrupt_flag:byte
  22  0000              extern _Uart_off:near
  22  0000              extern _Uart_Init:near
  22  0000              
  22  0000              ; 
  22  0000              ; Generated by holtek-gcc v3.19, Sat Jul 18 18:27:05 2020
  22  0000              ; Rebuild 115
  22  0000              ; end of file


        0 Errors, 0